(lp0
(I185
(lp1
Vfrom being
p2
aVfrom be
p3
atp4
a(I150
(lp5
Vby looking
p6
aVby look
p7
atp8
a(I122
(lp9
Vwithout being
p10
aVwithout be
p11
atp12
a(I117
(lp13
Vof reading
p14
aVof read
p15
atp16
a(I101
(lp17
Vof finding
p18
aVof find
p19
atp20
a(I95
(lp21
Vof hearing
p22
aVof hear
p23
atp24
a(I92
(lp25
Vof teaching
p26
aVof teach
p27
atp28
a(I92
(lp29
Vby adding
p30
aVby add
p31
atp32
a(I89
(lp33
Vin doing
p34
aVin do
p35
atp36
a(I89
(lp37
Vby doing
p38
aVby do
p39
atp40
a(I82
(lp41
Vfor growing
p42
aVfor grow
p43
atp44
a(I81
(lp45
Vin learning
p46
aVin learn
p47
atp48
a(I78
(lp49
Vby reading
p50
aVby read
p51
atp52
a(I78
(lp53
Vby being
p54
aVby be
p55
atp56
a(I77
(lp57
Vin keeping
p58
aVin keep
p59
atp60
a(I77
(lp61
Vfor building
p62
aVfor build
p63
atp64
a(I71
(lp65
Vin finding
p66
aVin find
p67
atp68
a(I68
(lp69
Vby putting
p70
aVby putt
p71
atp72
a(I64
(lp73
Vin developing
p74
aVin develop
p75
atp76
a(I61
(lp77
Vof growing
p78
aVof grow
p79
atp80
a(I60
(lp81
Vlike being
p82
aVlike be
p83
atp84
a(I58
(lp85
Vinto being
p86
aVinto be
p87
atp88
a(I58
(lp89
Vfor learning
p90
aVfor learn
p91
atp92
a(I56
(lp93
Vof trying
p94
aVof try
p95
atp96
a(I56
(lp97
Vin trying
p98
aVin try
p99
atp100
a(I56
(lp101
Vbefore going
p102
aVbefore go
p103
atp104
a(I55
(lp105
Vwithout knowing
p106
aVwithout know
p107
atp108
a(I54
(lp109
Vof keeping
p110
aVof keep
p111
atp112
a(I52
(lp113
Vin dealing
p114
aVin deal
p115
atp116
a(I51
(lp117
Vby asking
p118
aVby ask
p119
atp120
a(I50
(lp121
Vwithout thinking
p122
aVwithout think
p123
atp124
a(I47
(lp125
Vof obtaining
p126
aVof obtain
p127
atp128
a(I47
(lp129
Vin understanding
p130
aVin understand
p131
atp132
a(I47
(lp133
Vby keeping
p134
aVby keep
p135
atp136
a(I47
(lp137
Vby eating
p138
aVby eat
p139
atp140
a(I44
(lp141
Vof developing
p142
aVof develop
p143
atp144
a(I44
(lp145
Vin being
p146
aVin be
p147
atp148
a(I44
(lp149
Vby following
p150
aVby follow
p151
atp152
a(I43
(lp153
Vfor carrying
p154
aVfor carry
p155
atp156
a(I43
(lp157
Vby watching
p158
aVby watch
p159
atp160
a(I42
(lp161
Vof flying
p162
aVof fly
p163
atp164
a(I42
(lp165
Vof changing
p166
aVof chang
p167
atp168
a(I41
(lp169
Vfor teaching
p170
aVfor teach
p171
atp172
a(I41
(lp173
Vfor keeping
p174
aVfor keep
p175
atp176
a(I40
(lp177
Vwithout warning
p178
aVwithout warn
p179
atp180
a(I40
(lp181
Vby holding
p182
aVby hold
p183
atp184
a(I39
(lp185
Vof understanding
p186
aVof understand
p187
atp188
a(I39
(lp189
Vof existing
p190
aVof exist
p191
atp192
a(I39
(lp193
Vof eating
p194
aVof eat
p195
atp196
a(I39
(lp197
Vin selecting
p198
aVin select
p199
atp200
a(I39
(lp201
Vby sailing
p202
aVby sail
p203
atp204
a(I39
(lp205
Vbefore being
p206
aVbefore be
p207
atp208
a(I37
(lp209
Vfor finding
p210
aVfor find
p211
atp212
a(I37
(lp213
Vby telling
p214
aVby tell
p215
atp216
a(I37
(lp217
Vby selling
p218
aVby sell
p219
atp220
a(I37
(lp221
Vby applying
p222
aVby apply
p223
atp224
a(I37
(lp225
Vbefore starting
p226
aVbefore start
p227
atp228
a(I36
(lp229
Vwithout looking
p230
aVwithout look
p231
atp232
a(I36
(lp233
Vin teaching
p234
aVin teach
p235
atp236
a(I36
(lp237
Vin establishing
p238
aVin establish
p239
atp240
a(I36
(lp241
Vby going
p242
aVby go
p243
atp244
a(I35
(lp245
Vof selling
p246
aVof sell
p247
atp248
a(I35
(lp249
Vin carrying
p250
aVin carry
p251
atp252
a(I35
(lp253
Vby buying
p254
aVby buy
p255
atp256
a(I35
(lp257
Vat being
p258
aVat be
p259
atp260
a(I34
(lp261
Vof speaking
p262
aVof speak
p263
atp264
a(I34
(lp265
Vin speaking
p266
aVin speak
p267
atp268
a(I34
(lp269
Vin maintaining
p270
aVin maintain
p271
atp272
a(I34
(lp273
Vfrom entering
p274
aVfrom enter
p275
atp276
a(I33
(lp277
Vfrom going
p278
aVfrom go
p279
atp280
a(I33
(lp281
Vby turning
p282
aVby turn
p283
atp284
a(I33
(lp285
Vby showing
p286
aVby show
p287
atp288
a(I33
(lp289
Vby finding
p290
aVby find
p291
atp292
a(I32
(lp293
Vin selling
p294
aVin sell
p295
atp296
a(I32
(lp297
Vby thinking
p298
aVby think
p299
atp300
a(I32
(lp301
Vby passing
p302
aVby pass
p303
atp304
a(I32
(lp305
Vby learning
p306
aVby learn
p307
atp308
a(I31
(lp309
Vof drawing
p310
aVof draw
p311
atp312
a(I31
(lp313
Vfor eating
p314
aVfor eat
p315
atp316
a(I30
(lp317
Vwithout saying
p318
aVwithout say
p319
atp320
a(I30
(lp321
Vby forming
p322
aVby form
p323
atp324
a(I29
(lp325
Vwithout changing
p326
aVwithout chang
p327
atp328
a(I29
(lp329
Vby trying
p330
aVby try
p331
atp332
a(I29
(lp333
Vby listening
p334
aVby listen
p335
atp336
a(I29
(lp337
Vby building
p338
aVby build
p339
atp340
a(I28
(lp341
Vof varying
p342
aVof vary
p343
atp344
a(I28
(lp345
Vof protecting
p346
aVof protect
p347
atp348
a(I28
(lp349
Vof meeting
p350
aVof meet
p351
atp352
a(I28
(lp353
Vof buying
p354
aVof buy
p355
atp356
a(I28
(lp357
Vof asking
p358
aVof ask
p359
atp360
a(I28
(lp361
Vin growing
p362
aVin grow
p363
atp364
a(I28
(lp365
Vfrom reaching
p366
aVfrom reach
p367
atp368
a(I28
(lp369
Vfor understanding
p370
aVfor understand
p371
atp372
a(I28
(lp373
Vfor developing
p374
aVfor develop
p375
atp376
a(I28
(lp377
Vby multiplying
p378
aVby multiply
p379
atp380
a(I27
(lp381
Vof waiting
p382
aVof wait
p383
atp384
a(I27
(lp385
Vin considering
p386
aVin consider
p387
atp388
a(I27
(lp389
Vby sending
p390
aVby send
p391
atp392
a(I26
(lp393
Vof holding
p394
aVof hold
p395
atp396
a(I26
(lp397
Vof classifying
p398
aVof classify
p399
atp400
a(I26
(lp401
Vin discussing
p402
aVin discuss
p403
atp404
a(I26
(lp405
Vfor drawing
p406
aVfor draw
p407
atp408
a(I26
(lp409
Vby pushing
p410
aVby push
p411
atp412
a(I25
(lp413
Vof boiling
p414
aVof boil
p415
atp416
a(I25
(lp417
Vfrom doing
p418
aVfrom do
p419
atp420
a(I25
(lp421
Vfor holding
p422
aVfor hold
p423
atp424
a(I25
(lp425
Vafter reading
p426
aVafter read
p427
atp428
a(I25
(lp429
Vabout going
p430
aVabout go
p431
atp432
a(I24
(lp433
Vwithout seeing
p434
aVwithout see
p435
atp436
a(I24
(lp437
Vof spending
p438
aVof spend
p439
atp440
a(I24
(lp441
Vof preventing
p442
aVof prevent
p443
atp444
a(I24
(lp445
Vof listening
p446
aVof listen
p447
atp448
a(I24
(lp449
Vof establishing
p450
aVof establish
p451
atp452
a(I24
(lp453
Vin attempting
p454
aVin attempt
p455
atp456
a(I24
(lp457
Vin applying
p458
aVin apply
p459
atp460
a(I23
(lp461
Von talking
p462
aVon talk
p463
atp464
a(I23
(lp465
Vof cooking
p466
aVof cook
p467
atp468
a(I23
(lp469
Vin thinking
p470
aVin think
p471
atp472
a(I23
(lp473
Vin protecting
p474
aVin protect
p475
atp476
a(I23
(lp477
Vin meeting
p478
aVin meet
p479
atp480
a(I23
(lp481
Vin buying
p482
aVin buy
p483
atp484
a(I23
(lp485
Vfor buying
p486
aVfor buy
p487
atp488
a(I23
(lp489
Vby burning
p490
aVby burn
p491
atp492
a(I23
(lp493
Vbefore returning
p494
aVbefore return
p495
atp496
a(I22
(lp497
Von going
p498
aVon go
p499
atp500
a(I22
(lp501
Vof selecting
p502
aVof select
p503
atp504
a(I22
(lp505
Vof earning
p506
aVof earn
p507
atp508
a(I22
(lp509
Vfrom burning
p510
aVfrom burn
p511
atp512
a(I22
(lp513
Vby talking
p514
aVby talk
p515
atp516
a(I22
(lp517
Vby mixing
p518
aVby mix
p519
atp520
a(I22
(lp521
Vby knowing
p522
aVby know
p523
atp524
a(I22
(lp525
Vby growing
p526
aVby grow
p527
atp528
a(I21
(lp529
Vwith being
p530
aVwith be
p531
atp532
a(I21
(lp533
Vof gathering
p534
aVof gather
p535
atp536
a(I21
(lp537
Vof collecting
p538
aVof collect
p539
atp540
a(I21
(lp541
Vin obtaining
p542
aVin obtain
p543
atp544
a(I21
(lp545
Vin meaning
p546
aVin mean
p547
atp548
a(I21
(lp549
Vin identifying
p550
aVin identify
p551
atp552
a(I21
(lp553
Vin going
p554
aVin go
p555
atp556
a(I21
(lp557
Vin explaining
p558
aVin explain
p559
atp560
a(I21
(lp561
Vin accounting
p562
aVin account
p563
atp564
a(I21
(lp565
Vfrom spreading
p566
aVfrom spread
p567
atp568
a(I21
(lp569
Vfrom seeing
p570
aVfrom see
p571
atp572
a(I21
(lp573
Vfrom reading
p574
aVfrom read
p575
atp576
a(I21
(lp577
Vfrom eating
p578
aVfrom eat
p579
atp580
a(I21
(lp581
Vfor maintaining
p582
aVfor maintain
p583
atp584
a(I21
(lp585
Vby establishing
p586
aVby establish
p587
atp588
a(I21
(lp589
Vby drawing
p590
aVby draw
p591
atp592
a(I21
(lp593
Vby allowing
p594
aVby allow
p595
atp596
a(I20
(lp597
Vwhile waiting
p598
aVwhile wait
p599
atp600
a(I20
(lp601
Vwhile doing
p602
aVwhile do
p603
atp604
a(I20
(lp605
Vthat learning
p606
aVthat learn
p607
atp608
a(I20
(lp609
Von reading
p610
aVon read
p611
atp612
a(I20
(lp613
Vin varying
p614
aVin vary
p615
atp616
a(I20
(lp617
Vin treating
p618
aVin treat
p619
atp620
a(I20
(lp621
Vin seeing
p622
aVin see
p623
atp624
a(I20
(lp625
Vin performing
p626
aVin perform
p627
atp628
a(I20
(lp629
Vin fighting
p630
aVin fight
p631
atp632
a(I20
(lp633
Vfor collecting
p634
aVfor collect
p635
atp636
a(I20
(lp637
Vby developing
p638
aVby develop
p639
atp640
a(I20
(lp641
Vby acting
p642
aVby act
p643
atp644
a(I19
(lp645
Von learning
p646
aVon learn
p647
atp648
a(I19
(lp649
Vin passing
p650
aVin pass
p651
atp652
a(I19
(lp653
Vby wearing
p654
aVby wear
p655
atp656
a(I19
(lp657
Vby offering
p658
aVby offer
p659
atp660
a(I19
(lp661
Vby helping
p662
aVby help
p663
atp664
a(I19
(lp665
Vby considering
p666
aVby consider
p667
atp668
a(I19
(lp669
Vbesides being
p670
aVbesides be
p671
atp672
a(I19
(lp673
Vafter eating
p674
aVafter eat
p675
atp676
a(I18
(lp677
Vof staying
p678
aVof stay
p679
atp680
a(I18
(lp681
Vof riding
p682
aVof rid
p683
atp684
a(I18
(lp685
Vof maintaining
p686
aVof maintain
p687
atp688
a(I18
(lp689
Vof expressing
p690
aVof express
p691
atp692
a(I18
(lp693
Vin preventing
p694
aVin prevent
p695
atp696
a(I18
(lp697
Vin drawing
p698
aVin draw
p699
atp700
a(I18
(lp701
Vfor washing
p702
aVfor wash
p703
atp704
a(I18
(lp705
Vfor grinding
p706
aVfor grind
p707
atp708
a(I18
(lp709
Vby walking
p710
aVby walk
p711
atp712
a(I18
(lp713
Vby seeing
p714
aVby see
p715
atp716
a(I18
(lp717
Vby joining
p718
aVby join
p719
atp720
a(I18
(lp721
Vby drinking
p722
aVby drink
p723
atp724
a(I18
(lp725
Vafter passing
p726
aVafter pass
p727
atp728
a(I18
(lp729
Vabout learning
p730
aVabout learn
p731
atp732
a(I17
(lp733
Vof identifying
p734
aVof identify
p735
atp736
a(I17
(lp737
Vin knowing
p738
aVin know
p739
atp740
a(I17
(lp741
Vin governing
p742
aVin govern
p743
atp744
a(I17
(lp745
Vfor changing
p746
aVfor chang
p747
atp748
a(I17
(lp749
Vbefore entering
p750
aVbefore enter
p751
atp752
a(I17
(lp753
Vat seeing
p754
aVat see
p755
atp756
a(I17
(lp757
Vabout finding
p758
aVabout find
p759
atp760
a(I16
(lp761
Vwith varying
p762
aVwith vary
p763
atp764
a(I16
(lp765
Vwith learning
p766
aVwith learn
p767
atp768
a(I16
(lp769
Vwith growing
p770
aVwith grow
p771
atp772
a(I16
(lp773
Vof passing
p774
aVof pass
p775
atp776
a(I16
(lp777
Vof avoiding
p778
aVof avoid
p779
atp780
a(I16
(lp781
Vof adding
p782
aVof add
p783
atp784
a(I16
(lp785
Vinto thinking
p786
aVinto think
p787
atp788
a(I16
(lp789
Vin telling
p790
aVin tell
p791
atp792
a(I16
(lp793
Vin seeking
p794
aVin seek
p795
atp796
a(I16
(lp797
Vfor establishing
p798
aVfor establish
p799
atp800
a(I16
(lp801
Vfor dealing
p802
aVfor deal
p803
atp804
a(I16
(lp805
Vfor classifying
p806
aVfor classify
p807
atp808
a(I16
(lp809
Vby filling
p810
aVby fill
p811
atp812
a(I16
(lp813
Vby calling
p814
aVby call
p815
atp816
a(I15
(lp817
Vwithout speaking
p818
aVwithout speak
p819
atp820
a(I15
(lp821
Vwithout losing
p822
aVwithout los
p823
atp824
a(I15
(lp825
Vin lending
p826
aVin lend
p827
atp828
a(I15
(lp829
Vfrom flowing
p830
aVfrom flow
p831
atp832
a(I15
(lp833
Vfor obtaining
p834
aVfor obtain
p835
atp836
a(I15
(lp837
Vby stretching
p838
aVby stretch
p839
atp840
a(I15
(lp841
Vby pressing
p842
aVby press
p843
atp844
a(I15
(lp845
Vby pouring
p846
aVby pour
p847
atp848
a(I14
(lp849
Vof suffering
p850
aVof suffer
p851
atp852
a(I14
(lp853
Vof mixing
p854
aVof mix
p855
atp856
a(I14
(lp857
Vof belonging
p858
aVof belong
p859
atp860
a(I14
(lp861
Vin starting
p862
aVin start
p863
atp864
a(I14
(lp865
Vin breaking
p866
aVin break
p867
atp868
a(I14
(lp869
Vfor turning
p870
aVfor turn
p871
atp872
a(I14
(lp873
Vfor thinking
p874
aVfor think
p875
atp876
a(I14
(lp877
Vfor selecting
p878
aVfor select
p879
atp880
a(I14
(lp881
Vby subtracting
p882
aVby subtract
p883
atp884
a(I14
(lp885
Vby listing
p886
aVby list
p887
atp888
a(I14
(lp889
Varound looking
p890
aVaround look
p891
atp892
a(I14
(lp893
Vafter hearing
p894
aVafter hear
p895
atp896
a(I13
(lp897
Vwithout understanding
p898
aVwithout understand
p899
atp900
a(I13
(lp901
Vwithout turning
p902
aVwithout turn
p903
atp904
a(I13
(lp905
Vwithout breaking
p906
aVwithout break
p907
atp908
a(I13
(lp909
Vwhile walking
p910
aVwhile walk
p911
atp912
a(I13
(lp913
Vthat using
p914
aVthat us
p915
atp916
a(I13
(lp917
Von hearing
p918
aVon hear
p919
atp920
a(I13
(lp921
Vof performing
p922
aVof perform
p923
atp924
a(I13
(lp925
Vof hiding
p926
aVof hid
p927
atp928
a(I13
(lp929
Vlike crying
p930
aVlike cry
p931
atp932
a(I13
(lp933
Vin adjusting
p934
aVin adjust
p935
atp936
a(I13
(lp937
Vfor telling
p938
aVfor tell
p939
atp940
a(I13
(lp941
Vfor accounting
p942
aVfor account
p943
atp944
a(I13
(lp945
Vby limiting
p946
aVby limit
p947
atp948
a(I13
(lp949
Vby gathering
p950
aVby gather
p951
atp952
a(I13
(lp953
Vby boiling
p954
aVby boil
p955
atp956
a(I13
(lp957
Vby accepting
p958
aVby accept
p959
atp960
a(I13
(lp961
Vbefore turning
p962
aVbefore turn
p963
atp964
a(I13
(lp965
Vafter finishing
p966
aVafter finish
p967
atp968
a(I13
(lp969
Vabout reading
p970
aVabout read
p971
atp972
a(I12
(lp973
Vwithout touching
p974
aVwithout touch
p975
atp976
a(I12
(lp977
Vwithout meaning
p978
aVwithout mean
p979
atp980
a(I12
(lp981
Vwithout asking
p982
aVwithout ask
p983
atp984
a(I12
(lp985
Vwith reading
p986
aVwith read
p987
atp988
a(I12
(lp989
Von looking
p990
aVon look
p991
atp992
a(I12
(lp993
Von keeping
p994
aVon keep
p995
atp996
a(I12
(lp997
Vof treating
p998
aVof treat
p999
atp1000
a(I12
(lp1001
Vof standing
p1002
aVof stand
p1003
atp1004
a(I12
(lp1005
Vof explaining
p1006
aVof explain
p1007
atp1008
a(I12
(lp1009
Vof discovering
p1010
aVof discover
p1011
atp1012
a(I12
(lp1013
Vin putting
p1014
aVin putt
p1015
atp1016
a(I12
(lp1017
Vfrom holding
p1018
aVfrom hold
p1019
atp1020
a(I12
(lp1021
Vfrom happening
p1022
aVfrom happen
p1023
atp1024
a(I12
(lp1025
Vfor fastening
p1026
aVfor fasten
p1027
atp1028
a(I12
(lp1029
Vby washing
p1030
aVby wash
p1031
atp1032
a(I12
(lp1033
Vby teaching
p1034
aVby teach
p1035
atp1036
a(I12
(lp1037
Vby paying
p1038
aVby pay
p1039
atp1040
a(I12
(lp1041
Vby inserting
p1042
aVby insert
p1043
atp1044
a(I12
(lp1045
Vby focusing
p1046
aVby focus
p1047
atp1048
a(I12
(lp1049
Vby carrying
p1050
aVby carry
p1051
atp1052
a(I12
(lp1053
Vby adjusting
p1054
aVby adjust
p1055
atp1056
a(I12
(lp1057
Vbefore proceeding
p1058
aVbefore proceed
p1059
atp1060
a(I12
(lp1061
Vbefore doing
p1062
aVbefore do
p1063
atp1064
a(I12
(lp1065
Vbefore crossing
p1066
aVbefore cross
p1067
atp1068
a(I12
(lp1069
Vas saying
p1070
aVas say
p1071
atp1072
a(I12
(lp1073
Vas building
p1074
aVas build
p1075
atp1076
a(I12
(lp1077
Vas belonging
p1078
aVas belong
p1079
atp1080
a(I12
(lp1081
Vafter looking
p1082
aVafter look
p1083
atp1084
a(I12
(lp1085
Vabout eating
p1086
aVabout eat
p1087
atp1088
a(I11
(lp1089
Vwithout telling
p1090
aVwithout tell
p1091
atp1092
a(I11
(lp1093
Vwithout hurting
p1094
aVwithout hurt
p1095
atp1096
a(I11
(lp1097
Vwithout going
p1098
aVwithout go
p1099
atp1100
a(I11
(lp1101
Vwithout consulting
p1102
aVwithout consult
p1103
atp1104
a(I11
(lp1105
Vwhile keeping
p1106
aVwhile keep
p1107
atp1108
a(I11
(lp1109
Von walking
p1110
aVon walk
p1111
atp1112
a(I11
(lp1113
Von doing
p1114
aVon do
p1115
atp1116
a(I11
(lp1117
Vof owning
p1118
aVof own
p1119
atp1120
a(I11
(lp1121
Vlike walking
p1122
aVlike walk
p1123
atp1124
a(I11
(lp1125
Vlike doing
p1126
aVlike do
p1127
atp1128
a(I11
(lp1129
Vin interpreting
p1130
aVin interpret
p1131
atp1132
a(I11
(lp1133
Vin gaining
p1134
aVin gain
p1135
atp1136
a(I11
(lp1137
Vin filling
p1138
aVin fill
p1139
atp1140
a(I11
(lp1141
Vin eating
p1142
aVin eat
p1143
atp1144
a(I11
(lp1145
Vfrom walking
p1146
aVfrom walk
p1147
atp1148
a(I11
(lp1149
Vfrom turning
p1150
aVfrom turn
p1151
atp1152
a(I11
(lp1153
Vfor trying
p1154
aVfor try
p1155
atp1156
a(I11
(lp1157
Vfor seeing
p1158
aVfor see
p1159
atp1160
a(I11
(lp1161
Vfor fighting
p1162
aVfor fight
p1163
atp1164
a(I11
(lp1165
Vfor constructing
p1166
aVfor construct
p1167
atp1168
a(I11
(lp1169
Vfor chewing
p1170
aVfor chew
p1171
atp1172
a(I11
(lp1173
Vby varying
p1174
aVby vary
p1175
atp1176
a(I11
(lp1177
Vby repeating
p1178
aVby repeat
p1179
atp1180
a(I11
(lp1181
Vby failing
p1182
aVby fail
p1183
atp1184
a(I11
(lp1185
Vby destroying
p1186
aVby destroy
p1187
atp1188
a(I11
(lp1189
Vby connecting
p1190
aVby connect
p1191
atp1192
a(I11
(lp1193
Vby adopting
p1194
aVby adopt
p1195
atp1196
a(I11
(lp1197
Vbefore putting
p1198
aVbefore putt
p1199
atp1200
a(I11
(lp1201
Vbefore attempting
p1202
aVbefore attempt
p1203
atp1204
a(I11
(lp1205
Vat finding
p1206
aVat find
p1207
atp1208
a(I11
(lp1209
Vabout spelling
p1210
aVabout spell
p1211
atp1212
a(I10
(lp1213
Vwithout worrying
p1214
aVwithout worry
p1215
atp1216
a(I10
(lp1217
Vwithout feeling
p1218
aVwithout feel
p1219
atp1220
a(I10
(lp1221
Vwithout destroying
p1222
aVwithout destroy
p1223
atp1224
a(I10
(lp1225
Vwhile trying
p1226
aVwhile try
p1227
atp1228
a(I10
(lp1229
Vwhile studying
p1230
aVwhile study
p1231
atp1232
a(I10
(lp1233
Vwhile standing
p1234
aVwhile stand
p1235
atp1236
a(I10
(lp1237
Vwhile playing
p1238
aVwhile play
p1239
atp1240
a(I10
(lp1241
Von growing
p1242
aVon grow
p1243
atp1244
a(I10
(lp1245
Von finding
p1246
aVon find
p1247
atp1248
a(I10
(lp1249
Von eating
p1250
aVon eat
p1251
atp1252
a(I10
(lp1253
Vof warning
p1254
aVof warn
p1255
atp1256
a(I10
(lp1257
Vof joining
p1258
aVof join
p1259
atp1260
a(I10
(lp1261
Vof filling
p1262
aVof fill
p1263
atp1264
a(I10
(lp1265
Vof defending
p1266
aVof defend
p1267
atp1268
a(I10
(lp1269
Vlike trying
p1270
aVlike try
p1271
atp1272
a(I10
(lp1273
Vin sending
p1274
aVin send
p1275
atp1276
a(I10
(lp1277
Vin discovering
p1278
aVin discover
p1279
atp1280
a(I10
(lp1281
Vin collecting
p1282
aVin collect
p1283
atp1284
a(I10
(lp1285
Vin assessing
p1286
aVin assess
p1287
atp1288
a(I10
(lp1289
Vfrom watching
p1290
aVfrom watch
p1291
atp1292
a(I10
(lp1293
Vfrom sticking
p1294
aVfrom stick
p1295
atp1296
a(I10
(lp1297
Vfrom buying
p1298
aVfrom buy
p1299
atp1300
a(I10
(lp1301
Vfor saying
p1302
aVfor say
p1303
atp1304
a(I10
(lp1305
Vfor listening
p1306
aVfor listen
p1307
atp1308
a(I10
(lp1309
Vfor killing
p1310
aVfor kill
p1311
atp1312
a(I10
(lp1313
Vfor joining
p1314
aVfor join
p1315
atp1316
a(I10
(lp1317
Vfor filling
p1318
aVfor fill
p1319
atp1320
a(I10
(lp1321
Vby treating
p1322
aVby treat
p1323
atp1324
a(I10
(lp1325
Vby signing
p1326
aVby sign
p1327
atp1328
a(I10
(lp1329
Vby shifting
p1330
aVby shift
p1331
atp1332
a(I10
(lp1333
Vby preventing
p1334
aVby prevent
p1335
atp1336
a(I10
(lp1337
Vby granting
p1338
aVby grant
p1339
atp1340
a(I10
(lp1341
Vby employing
p1342
aVby employ
p1343
atp1344
a(I10
(lp1345
Vby attempting
p1346
aVby attempt
p1347
atp1348
a(I10
(lp1349
Vbetween being
p1350
aVbetween be
p1351
atp1352
a(I10
(lp1353
Vbefore reaching
p1354
aVbefore reach
p1355
atp1356
a(I10
(lp1357
Vbefore eating
p1358
aVbefore eat
p1359
atp1360
a(I10
(lp1361
Vbefore discussing
p1362
aVbefore discuss
p1363
atp1364
a(I10
(lp1365
Vafter seeing
p1366
aVafter see
p1367
atp1368
a(I10
(lp1369
Vabout building
p1370
aVabout build
p1371
atp1372
a(I9
(lp1373
Vwithout doing
p1374
aVwithout do
p1375
atp1376
a(I9
(lp1377
Vwithout considering
p1378
aVwithout consider
p1379
atp1380
a(I9
(lp1381
Vwithout answering
p1382
aVwithout answer
p1383
atp1384
a(I9
(lp1385
Vwith finding
p1386
aVwith find
p1387
atp1388
a(I9
(lp1389
Vwhile looking
p1390
aVwhile look
p1391
atp1392
a(I9
(lp1393
Vwhile learning
p1394
aVwhile learn
p1395
atp1396
a(I9
(lp1397
Vthrough reading
p1398
aVthrough read
p1399
atp1400
a(I9
(lp1401
Vout walking
p1402
aVout walk
p1403
atp1404
a(I9
(lp1405
Von trying
p1406
aVon try
p1407
atp1408
a(I9
(lp1409
Von thinking
p1410
aVon think
p1411
atp1412
a(I9
(lp1413
Von seeing
p1414
aVon see
p1415
atp1416
a(I9
(lp1417
Vof shooting
p1418
aVof shoot
p1419
atp1420
a(I9
(lp1421
Vof remaining
p1422
aVof remain
p1423
atp1424
a(I9
(lp1425
Vof governing
p1426
aVof govern
p1427
atp1428
a(I9
(lp1429
Vof diminishing
p1430
aVof diminish
p1431
atp1432
a(I9
(lp1433
Vof converting
p1434
aVof convert
p1435
atp1436
a(I9
(lp1437
Vof borrowing
p1438
aVof borrow
p1439
atp1440
a(I9
(lp1441
Vof allowing
p1442
aVof allow
p1443
atp1444
a(I9
(lp1445
Vlike eating
p1446
aVlike eat
p1447
atp1448
a(I9
(lp1449
Vinto doing
p1450
aVinto do
p1451
atp1452
a(I9
(lp1453
Vin washing
p1454
aVin wash
p1455
atp1456
a(I9
(lp1457
Vin spending
p1458
aVin spend
p1459
atp1460
a(I9
(lp1461
Vin killing
p1462
aVin kill
p1463
atp1464
a(I9
(lp1465
Vin hiding
p1466
aVin hid
p1467
atp1468
a(I9
(lp1469
Vin drafting
p1470
aVin draft
p1471
atp1472
a(I9
(lp1473
Vin constructing
p1474
aVin construct
p1475
atp1476
a(I9
(lp1477
Vfrom trying
p1478
aVfrom try
p1479
atp1480
a(I9
(lp1481
Vfrom carrying
p1482
aVfrom carry
p1483
atp1484
a(I9
(lp1485
Vfor sending
p1486
aVfor send
p1487
atp1488
a(I9
(lp1489
Vfor meeting
p1490
aVfor meet
p1491
atp1492
a(I9
(lp1493
Vfor entering
p1494
aVfor enter
p1495
atp1496
a(I9
(lp1497
Vfor earning
p1498
aVfor earn
p1499
atp1500
a(I9
(lp1501
Vfor climbing
p1502
aVfor climb
p1503
atp1504
a(I9
(lp1505
Vfor breeding
p1506
aVfor breed
p1507
atp1508
a(I9
(lp1509
Vby throwing
p1510
aVby throw
p1511
atp1512
a(I9
(lp1513
Vby suggesting
p1514
aVby suggest
p1515
atp1516
a(I9
(lp1517
Vby staying
p1518
aVby stay
p1519
atp1520
a(I9
(lp1521
Vby selecting
p1522
aVby select
p1523
atp1524
a(I9
(lp1525
Vby performing
p1526
aVby perform
p1527
atp1528
a(I9
(lp1529
Vby maintaining
p1530
aVby maintain
p1531
atp1532
a(I9
(lp1533
Vby identifying
p1534
aVby identify
p1535
atp1536
a(I9
(lp1537
Vby hanging
p1538
aVby hang
p1539
atp1540
a(I9
(lp1541
Vby feeding
p1542
aVby feed
p1543
atp1544
a(I9
(lp1545
Vby collecting
p1546
aVby collect
p1547
atp1548
a(I9
(lp1549
Vby avoiding
p1550
aVby avoid
p1551
atp1552
a(I9
(lp1553
Vbefore applying
p1554
aVbefore apply
p1555
atp1556
a(I9
(lp1557
Vat varying
p1558
aVat vary
p1559
atp1560
a(I9
(lp1561
Vas eating
p1562
aVas eat
p1563
atp1564
a(I9
(lp1565
Vafter watching
p1566
aVafter watch
p1567
atp1568
a(I9
(lp1569
Vabout losing
p1570
aVabout los
p1571
atp1572
a(I9
(lp1573
Vabout keeping
p1574
aVabout keep
p1575
atp1576
a(I8
(lp1577
Vwithout learning
p1578
aVwithout learn
p1579
atp1580
a(I8
(lp1581
Vwithout affecting
p1582
aVwithout affect
p1583
atp1584
a(I8
(lp1585
Vwith existing
p1586
aVwith exist
p1587
atp1588
a(I8
(lp1589
Vwith changing
p1590
aVwith chang
p1591
atp1592
a(I8
(lp1593
Vwhile traveling
p1594
aVwhile travel
p1595
atp1596
a(I8
(lp1597
Vwhile maintaining
p1598
aVwhile maintain
p1599
atp1600
a(I8
(lp1601
Vout looking
p1602
aVout look
p1603
atp1604
a(I8
(lp1605
Von entering
p1606
aVon enter
p1607
atp1608
a(I8
(lp1609
Vof shifting
p1610
aVof shift
p1611
atp1612
a(I8
(lp1613
Vof reacting
p1614
aVof react
p1615
atp1616
a(I8
(lp1617
Vof offering
p1618
aVof offer
p1619
atp1620
a(I8
(lp1621
Vof floating
p1622
aVof float
p1623
atp1624
a(I8
(lp1625
Vof failing
p1626
aVof fail
p1627
atp1628
a(I8
(lp1629
Vof disturbing
p1630
aVof disturb
p1631
atp1632
a(I8
(lp1633
Vin saying
p1634
aVin say
p1635
atp1636
a(I8
(lp1637
Vin satisfying
p1638
aVin satisfy
p1639
atp1640
a(I8
(lp1641
Vin picking
p1642
aVin pick
p1643
atp1644
a(I8
(lp1645
Vin offering
p1646
aVin offer
p1647
atp1648
a(I8
(lp1649
Vin hearing
p1650
aVin hear
p1651
atp1652
a(I8
(lp1653
Vin greeting
p1654
aVin greet
p1655
atp1656
a(I8
(lp1657
Vin expressing
p1658
aVin express
p1659
atp1660
a(I8
(lp1661
Vin accepting
p1662
aVin accept
p1663
atp1664
a(I8
(lp1665
Vfrom thinking
p1666
aVfrom think
p1667
atp1668
a(I8
(lp1669
Vfrom spoiling
p1670
aVfrom spoil
p1671
atp1672
a(I8
(lp1673
Vfrom learning
p1674
aVfrom learn
p1675
atp1676
a(I8
(lp1677
Vfrom flying
p1678
aVfrom fly
p1679
atp1680
a(I8
(lp1681
Vfrom fighting
p1682
aVfrom fight
p1683
atp1684
a(I8
(lp1685
Vfrom building
p1686
aVfrom build
p1687
atp1688
a(I8
(lp1689
Vfrom breaking
p1690
aVfrom break
p1691
atp1692
a(I8
(lp1693
Vfrom acting
p1694
aVfrom act
p1695
atp1696
a(I8
(lp1697
Vfor spelling
p1698
aVfor spell
p1699
atp1700
a(I8
(lp1701
Vfor performing
p1702
aVfor perform
p1703
atp1704
a(I8
(lp1705
Vfor governing
p1706
aVfor govern
p1707
atp1708
a(I8
(lp1709
Vfor calling
p1710
aVfor call
p1711
atp1712
a(I8
(lp1713
Vfor applying
p1714
aVfor apply
p1715
atp1716
a(I8
(lp1717
Vby shouting
p1718
aVby shout
p1719
atp1720
a(I8
(lp1721
Vby flying
p1722
aVby fly
p1723
atp1724
a(I8
(lp1725
Vby discussing
p1726
aVby discuss
p1727
atp1728
a(I8
(lp1729
Vby converting
p1730
aVby convert
p1731
atp1732
a(I8
(lp1733
Vby attaching
p1734
aVby attach
p1735
atp1736
a(I8
(lp1737
Vby absorbing
p1738
aVby absorb
p1739
atp1740
a(I8
(lp1741
Vbefore trying
p1742
aVbefore try
p1743
atp1744
a(I8
(lp1745
Vbefore buying
p1746
aVbefore buy
p1747
atp1748
a(I8
(lp1749
Vbefore answering
p1750
aVbefore answer
p1751
atp1752
a(I8
(lp1753
Vat building
p1754
aVat build
p1755
atp1756
a(I8
(lp1757
Vas consisting
p1758
aVas consist
p1759
atp1760
a(I8
(lp1761
Vafter selecting
p1762
aVafter select
p1763
atp1764
a(I8
(lp1765
Vafter reaching
p1766
aVafter reach
p1767
atp1768
a(I8
(lp1769
Vafter hatching
p1770
aVafter hatch
p1771
atp1772
a(I8
(lp1773
Vabout trying
p1774
aVabout try
p1775
atp1776
a(I8
(lp1777
Vabout starting
p1778
aVabout start
p1779
atp1780
a(I8
(lp1781
Vabout seeing
p1782
aVabout see
p1783
atp1784
a(I8
(lp1785
Vabout looking
p1786
aVabout look
p1787
atp1788
a(I8
(lp1789
Vabout fighting
p1790
aVabout fight
p1791
atp1792
a(I7
(lp1793
Vwithout falling
p1794
aVwithout fall
p1795
atp1796
a(I7
(lp1797
Vwithout bothering
p1798
aVwithout bother
p1799
atp1800
a(I7
(lp1801
Vwithout adding
p1802
aVwithout add
p1803
atp1804
a(I7
(lp1805
Vupon hearing
p1806
aVupon hear
p1807
atp1808
a(I7
(lp1809
Vupon entering
p1810
aVupon enter
p1811
atp1812
a(I7
(lp1813
Vtoward finding
p1814
aVtoward find
p1815
atp1816
a(I7
(lp1817
Von meeting
p1818
aVon meet
p1819
atp1820
a(I7
(lp1821
Von helping
p1822
aVon help
p1823
atp1824
a(I7
(lp1825
Von developing
p1826
aVon develop
p1827
atp1828
a(I7
(lp1829
Vof stealing
p1830
aVof steal
p1831
atp1832
a(I7
(lp1833
Vof seeking
p1834
aVof seek
p1835
atp1836
a(I7
(lp1837
Vof screaming
p1838
aVof scream
p1839
atp1840
a(I7
(lp1841
Vof representing
p1842
aVof represent
p1843
atp1844
a(I7
(lp1845
Vof repeating
p1846
aVof repeat
p1847
atp1848
a(I7
(lp1849
Vof predicting
p1850
aVof predict
p1851
atp1852
a(I7
(lp1853
Vof laughing
p1854
aVof laugh
p1855
atp1856
a(I7
(lp1857
Vof entering
p1858
aVof enter
p1859
atp1860
a(I7
(lp1861
Vof binding
p1862
aVof bind
p1863
atp1864
a(I7
(lp1865
Vof bending
p1866
aVof bend
p1867
atp1868
a(I7
(lp1869
Vof administering
p1870
aVof administer
p1871
atp1872
a(I7
(lp1873
Vof accepting
p1874
aVof accept
p1875
atp1876
a(I7
(lp1877
Vinto hiding
p1878
aVinto hid
p1879
atp1880
a(I7
(lp1881
Vinto buying
p1882
aVinto buy
p1883
atp1884
a(I7
(lp1885
Vin predicting
p1886
aVin predict
p1887
atp1888
a(I7
(lp1889
Vin listening
p1890
aVin listen
p1891
atp1892
a(I7
(lp1893
Vin granting
p1894
aVin grant
p1895
atp1896
a(I7
(lp1897
Vin expanding
p1898
aVin expand
p1899
atp1900
a(I7
(lp1901
Vin attracting
p1902
aVin attract
p1903
atp1904
a(I7
(lp1905
Vin administering
p1906
aVin administer
p1907
atp1908
a(I7
(lp1909
Vin adapting
p1910
aVin adapt
p1911
atp1912
a(I7
(lp1913
Vfrom pulling
p1914
aVfrom pull
p1915
atp1916
a(I7
(lp1917
Vfrom melting
p1918
aVfrom melt
p1919
atp1920
a(I7
(lp1921
Vfrom listening
p1922
aVfrom listen
p1923
atp1924
a(I7
(lp1925
Vfrom knowing
p1926
aVfrom know
p1927
atp1928
a(I7
(lp1929
Vfrom gaining
p1930
aVfrom gain
p1931
atp1932
a(I7
(lp1933
Vfrom feeling
p1934
aVfrom feel
p1935
atp1936
a(I7
(lp1937
Vfrom decaying
p1938
aVfrom decay
p1939
atp1940
a(I7
(lp1941
Vfor steering
p1942
aVfor steer
p1943
atp1944
a(I7
(lp1945
Vfor speaking
p1946
aVfor speak
p1947
atp1948
a(I7
(lp1949
Vfor sailing
p1950
aVfor sail
p1951
atp1952
a(I7
(lp1953
Vfor predicting
p1954
aVfor predict
p1955
atp1956
a(I7
(lp1957
Vfor looking
p1958
aVfor look
p1959
atp1960
a(I7
(lp1961
Vfor feeling
p1962
aVfor feel
p1963
atp1964
a(I7
(lp1965
Vfor failing
p1966
aVfor fail
p1967
atp1968
a(I7
(lp1969
Vfor coping
p1970
aVfor cop
p1971
atp1972
a(I7
(lp1973
Vfor assessing
p1974
aVfor assess
p1975
atp1976
a(I7
(lp1977
Vby visiting
p1978
aVby visit
p1979
atp1980
a(I7
(lp1981
Vby understanding
p1982
aVby understand
p1983
atp1984
a(I7
(lp1985
Vby speaking
p1986
aVby speak
p1987
atp1988
a(I7
(lp1989
Vby seeking
p1990
aVby seek
p1991
atp1992
a(I7
(lp1993
Vby responding
p1994
aVby respond
p1995
atp1996
a(I7
(lp1997
Vby lifting
p1998
aVby lift
p1999
atp2000
a(I7
(lp2001
Vby gaining
p2002
aVby gain
p2003
atp2004
a(I7
(lp2005
Vby extending
p2006
aVby extend
p2007
atp2008
a(I7
(lp2009
Vby drilling
p2010
aVby drill
p2011
atp2012
a(I7
(lp2013
Vby depressing
p2014
aVby depress
p2015
atp2016
a(I7
(lp2017
Vby borrowing
p2018
aVby borrow
p2019
atp2020
a(I7
(lp2021
Vby blowing
p2022
aVby blow
p2023
atp2024
a(I7
(lp2025
Vas threatening
p2026
aVas threaten
p2027
atp2028
a(I7
(lp2029
Vas burning
p2030
aVas burn
p2031
atp2032
a(I7
(lp2033
Vafter thinking
p2034
aVafter think
p2035
atp2036
a(I7
(lp2037
Vafter planting
p2038
aVafter plant
p2039
atp2040
a(I7
(lp2041
Vafter mating
p2042
aVafter mat
p2043
atp2044
a(I7
(lp2045
Vafter listening
p2046
aVafter listen
p2047
atp2048
a(I7
(lp2049
Vafter going
p2050
aVafter go
p2051
atp2052
a(I7
(lp2053
Vafter drinking
p2054
aVafter drink
p2055
atp2056
a(I7
(lp2057
Vafter buying
p2058
aVafter buy
p2059
atp2060
a(I7
(lp2061
Vabout flying
p2062
aVabout fly
p2063
atp2064
a(I6
(lp2065
Vwithout suffering
p2066
aVwithout suffer
p2067
atp2068
a(I6
(lp2069
Vwithout passing
p2070
aVwithout pass
p2071
atp2072
a(I6
(lp2073
Vwithout finding
p2074
aVwithout find
p2075
atp2076
a(I6
(lp2077
Vwithout altering
p2078
aVwithout alter
p2079
atp2080
a(I6
(lp2081
Vwith understanding
p2082
aVwith understand
p2083
atp2084
a(I6
(lp2085
Vwith training
p2086
aVwith train
p2087
atp2088
a(I6
(lp2089
Vwhile reading
p2090
aVwhile read
p2091
atp2092
a(I6
(lp2093
Vwhile holding
p2094
aVwhile hold
p2095
atp2096
a(I6
(lp2097
Vupon reaching
p2098
aVupon reach
p2099
atp2100
a(I6
(lp2101
Vupon cooling
p2102
aVupon cool
p2103
atp2104
a(I6
(lp2105
Vupon being
p2106
aVupon be
p2107
atp2108
a(I6
(lp2109
Vre learning
p2110
aVre learn
p2111
atp2112
a(I6
(lp2113
Von spending
p2114
aVon spend
p2115
atp2116
a(I6
(lp2117
Von crying
p2118
aVon cry
p2119
atp2120
a(I6
(lp2121
Von building
p2122
aVon build
p2123
atp2124
a(I6
(lp2125
Vof steering
p2126
aVof steer
p2127
atp2128
a(I6
(lp2129
Vof relying
p2130
aVof rely
p2131
atp2132
a(I6
(lp2133
Vof rebuilding
p2134
aVof rebuild
p2135
atp2136
a(I6
(lp2137
Vof modifying
p2138
aVof modify
p2139
atp2140
a(I6
(lp2141
Vof matching
p2142
aVof match
p2143
atp2144
a(I6
(lp2145
Vof listing
p2146
aVof list
p2147
atp2148
a(I6
(lp2149
Vof lending
p2150
aVof lend
p2151
atp2152
a(I6
(lp2153
Vof informing
p2154
aVof inform
p2155
atp2156
a(I6
(lp2157
Vof grinding
p2158
aVof grind
p2159
atp2160
a(I6
(lp2161
Vof greeting
p2162
aVof greet
p2163
atp2164
a(I6
(lp2165
Vof extending
p2166
aVof extend
p2167
atp2168
a(I6
(lp2169
Vof coughing
p2170
aVof cough
p2171
atp2172
a(I6
(lp2173
Vof adjusting
p2174
aVof adjust
p2175
atp2176
a(I6
(lp2177
Vlike looking
p2178
aVlike look
p2179
atp2180
a(I6
(lp2181
Vlike flying
p2182
aVlike fly
p2183
atp2184
a(I6
(lp2185
Vinto accepting
p2186
aVinto accept
p2187
atp2188
a(I6
(lp2189
Vin wearing
p2190
aVin wear
p2191
atp2192
a(I6
(lp2193
Vin walking
p2194
aVin walk
p2195
atp2196
a(I6
(lp2197
Vin throwing
p2198
aVin throw
p2199
atp2200
a(I6
(lp2201
Vin sailing
p2202
aVin sail
p2203
atp2204
a(I6
(lp2205
Vin riding
p2206
aVin rid
p2207
atp2208
a(I6
(lp2209
Vin responding
p2210
aVin respond
p2211
atp2212
a(I6
(lp2213
Vin recruiting
p2214
aVin recruit
p2215
atp2216
a(I6
(lp2217
Vin pushing
p2218
aVin push
p2219
atp2220
a(I6
(lp2221
Vin fulfilling
p2222
aVin fulfill
p2223
atp2224
a(I6
(lp2225
Vin defending
p2226
aVin defend
p2227
atp2228
a(I6
(lp2229
Vin boiling
p2230
aVin boil
p2231
atp2232
a(I6
(lp2233
Vin asking
p2234
aVin ask
p2235
atp2236
a(I6
(lp2237
Vfrom performing
p2238
aVfrom perform
p2239
atp2240
a(I6
(lp2241
Vfrom mining
p2242
aVfrom min
p2243
atp2244
a(I6
(lp2245
Vfrom hearing
p2246
aVfrom hear
p2247
atp2248
a(I6
(lp2249
Vfrom existing
p2250
aVfrom exist
p2251
atp2252
a(I6
(lp2253
Vfrom drowning
p2254
aVfrom drown
p2255
atp2256
a(I6
(lp2257
Vfrom blowing
p2258
aVfrom blow
p2259
atp2260
a(I6
(lp2261
Vfor treating
p2262
aVfor treat
p2263
atp2264
a(I6
(lp2265
Vfor selling
p2266
aVfor sell
p2267
atp2268
a(I6
(lp2269
Vfor resulting
p2270
aVfor result
p2271
atp2272
a(I6
(lp2273
Vfor protecting
p2274
aVfor protect
p2275
atp2276
a(I6
(lp2277
Vfor preventing
p2278
aVfor prevent
p2279
atp2280
a(I6
(lp2281
Vfor passing
p2282
aVfor pass
p2283
atp2284
a(I6
(lp2285
Vfor meaning
p2286
aVfor mean
p2287
atp2288
a(I6
(lp2289
Vfor jumping
p2290
aVfor jump
p2291
atp2292
a(I6
(lp2293
Vfor gathering
p2294
aVfor gather
p2295
atp2296
a(I6
(lp2297
Vfor cheating
p2298
aVfor cheat
p2299
atp2300
a(I6
(lp2301
Vfor catching
p2302
aVfor catch
p2303
atp2304
a(I6
(lp2305
Vfor administering
p2306
aVfor administer
p2307
atp2308
a(I6
(lp2309
Vby surrounding
p2310
aVby surround
p2311
atp2312
a(I6
(lp2313
Vby starting
p2314
aVby start
p2315
atp2316
a(I6
(lp2317
Vby spreading
p2318
aVby spread
p2319
atp2320
a(I6
(lp2321
Vby riding
p2322
aVby rid
p2323
atp2324
a(I6
(lp2325
Vby recording
p2326
aVby record
p2327
atp2328
a(I6
(lp2329
Vby projecting
p2330
aVby project
p2331
atp2332
a(I6
(lp2333
Vby mining
p2334
aVby min
p2335
atp2336
a(I6
(lp2337
Vby linking
p2338
aVby link
p2339
atp2340
a(I6
(lp2341
Vby explaining
p2342
aVby explain
p2343
atp2344
a(I6
(lp2345
Vby discovering
p2346
aVby discover
p2347
atp2348
a(I6
(lp2349
Vby consulting
p2350
aVby consult
p2351
atp2352
a(I6
(lp2353
Vby chewing
p2354
aVby chew
p2355
atp2356
a(I6
(lp2357
Vby bending
p2358
aVby bend
p2359
atp2360
a(I6
(lp2361
Vby attacking
p2362
aVby attack
p2363
atp2364
a(I6
(lp2365
Vby altering
p2366
aVby alter
p2367
atp2368
a(I6
(lp2369
Vbefore opening
p2370
aVbefore open
p2371
atp2372
a(I6
(lp2373
Vas riding
p2374
aVas rid
p2375
atp2376
a(I6
(lp2377
Vas going
p2378
aVas go
p2379
atp2380
a(I6
(lp2381
Vas following
p2382
aVas follow
p2383
atp2384
a(I6
(lp2385
Vafter spending
p2386
aVafter spend
p2387
atp2388
a(I6
(lp2389
Vafter crossing
p2390
aVafter cross
p2391
atp2392
a(I6
(lp2393
Vafter attending
p2394
aVafter attend
p2395
atp2396
a(I6
(lp2397
Vabout talking
p2398
aVabout talk
p2399
atp2400
a(I6
(lp2401
Vabout putting
p2402
aVabout putt
p2403
atp2404
a(I6
(lp2405
Vabout meeting
p2406
aVabout meet
p2407
atp2408
a(I6
(lp2409
Vabout growing
p2410
aVabout grow
p2411
atp2412
a(I6
(lp2413
Vabout changing
p2414
aVabout chang
p2415
atp2416
a(I6
(lp2417
Vabout buying
p2418
aVabout buy
p2419
atp2420
a(I5
(lp2421
Vwithout trying
p2422
aVwithout try
p2423
atp2424
a(I5
(lp2425
Vwithout spoiling
p2426
aVwithout spoil
p2427
atp2428
a(I5
(lp2429
Vwithout putting
p2430
aVwithout putt
p2431
atp2432
a(I5
(lp2433
Vwithout opening
p2434
aVwithout open
p2435
atp2436
a(I5
(lp2437
Vwithout lifting
p2438
aVwithout lift
p2439
atp2440
a(I5
(lp2441
Vwithout interrupting
p2442
aVwithout interrupt
p2443
atp2444
a(I5
(lp2445
Vwithout hearing
p2446
aVwithout hear
p2447
atp2448
a(I5
(lp2449
Vwithout gaining
p2450
aVwithout gain
p2451
atp2452
a(I5
(lp2453
Vwithout drinking
p2454
aVwithout drink
p2455
atp2456
a(I5
(lp2457
Vwithout disturbing
p2458
aVwithout disturb
p2459
atp2460
a(I5
(lp2461
Vwithout bumping
p2462
aVwithout bump
p2463
atp2464
a(I5
(lp2465
Vwith surrounding
p2466
aVwith surround
p2467
atp2468
a(I5
(lp2469
Vwith carrying
p2470
aVwith carry
p2471
atp2472
a(I5
(lp2473
Vwith burning
p2474
aVwith burn
p2475
atp2476
a(I5
(lp2477
Vwith breaking
p2478
aVwith break
p2479
atp2480
a(I5
(lp2481
Vwhile using
p2482
aVwhile us
p2483
atp2484
a(I5
(lp2485
Vwhile saying
p2486
aVwhile say
p2487
atp2488
a(I5
(lp2489
Vwhile remaining
p2490
aVwhile remain
p2491
atp2492
a(I5
(lp2493
Vwhile drinking
p2494
aVwhile drink
p2495
atp2496
a(I5
(lp2497
Vupon seeing
p2498
aVupon see
p2499
atp2500
a(I5
(lp2501
Vtoward understanding
p2502
aVtoward understand
p2503
atp2504
a(I5
(lp2505
Vtoward gaining
p2506
aVtoward gain
p2507
atp2508
a(I5
(lp2509
Vtoward being
p2510
aVtoward be
p2511
atp2512
a(I5
(lp2513
Vpast learning
p2514
aVpast learn
p2515
atp2516
a(I5
(lp2517
Von putting
p2518
aVon putt
p2519
atp2520
a(I5
(lp2521
Von passing
p2522
aVon pass
p2523
atp2524
a(I5
(lp2525
Von listening
p2526
aVon listen
p2527
atp2528
a(I5
(lp2529
Von knowing
p2530
aVon know
p2531
atp2532
a(I5
(lp2533
Von fighting
p2534
aVon fight
p2535
atp2536
a(I5
(lp2537
Von chewing
p2538
aVon chew
p2539
atp2540
a(I5
(lp2541
Vof responding
p2542
aVof respond
p2543
atp2544
a(I5
(lp2545
Vof remembering
p2546
aVof remember
p2547
atp2548
a(I5
(lp2549
Vof preaching
p2550
aVof preach
p2551
atp2552
a(I5
(lp2553
Vof pouring
p2554
aVof pour
p2555
atp2556
a(I5
(lp2557
Vof pounding
p2558
aVof pound
p2559
atp2560
a(I5
(lp2561
Vof leaping
p2562
aVof leap
p2563
atp2564
a(I5
(lp2565
Vof interpreting
p2566
aVof interpret
p2567
atp2568
a(I5
(lp2569
Vof interacting
p2570
aVof interact
p2571
atp2572
a(I5
(lp2573
Vof implementing
p2574
aVof implement
p2575
atp2576
a(I5
(lp2577
Vof fixing
p2578
aVof fix
p2579
atp2580
a(I5
(lp2581
Vof expanding
p2582
aVof expand
p2583
atp2584
a(I5
(lp2585
Vof drowning
p2586
aVof drown
p2587
atp2588
a(I5
(lp2589
Vof delivering
p2590
aVof deliver
p2591
atp2592
a(I5
(lp2593
Vof cheating
p2594
aVof cheat
p2595
atp2596
a(I5
(lp2597
Vof attracting
p2598
aVof attract
p2599
atp2600
a(I5
(lp2601
Vof assigning
p2602
aVof assign
p2603
atp2604
a(I5
(lp2605
Vof adapting
p2606
aVof adapt
p2607
atp2608
a(I5
(lp2609
Vlike yelling
p2610
aVlike yell
p2611
atp2612
a(I5
(lp2613
Vlike turning
p2614
aVlike turn
p2615
atp2616
a(I5
(lp2617
Vlike talking
p2618
aVlike talk
p2619
atp2620
a(I5
(lp2621
Vlike saying
p2622
aVlike say
p2623
atp2624
a(I5
(lp2625
Vlike riding
p2626
aVlike rid
p2627
atp2628
a(I5
(lp2629
Vlike putting
p2630
aVlike putt
p2631
atp2632
a(I5
(lp2633
Vlike finding
p2634
aVlike find
p2635
atp2636
a(I5
(lp2637
Vlike building
p2638
aVlike build
p2639
atp2640
a(I5
(lp2641
Vinto going
p2642
aVinto go
p2643
atp2644
a(I5
(lp2645
Vin visiting
p2646
aVin visit
p2647
atp2648
a(I5
(lp2649
Vin surveying
p2650
aVin survey
p2651
atp2652
a(I5
(lp2653
Vin forecasting
p2654
aVin forecast
p2655
atp2656
a(I5
(lp2657
Vin classifying
p2658
aVin classify
p2659
atp2660
a(I5
(lp2661
Vin chewing
p2662
aVin chew
p2663
atp2664
a(I5
(lp2665
Vif expecting
p2666
aVif expect
p2667
atp2668
a(I5
(lp2669
Vif being
p2670
aVif be
p2671
atp2672
a(I5
(lp2673
Vfrom selling
p2674
aVfrom sell
p2675
atp2676
a(I5
(lp2677
Vfrom pushing
p2678
aVfrom push
p2679
atp2680
a(I5
(lp2681
Vfrom owning
p2682
aVfrom own
p2683
atp2684
a(I5
(lp2685
Vfrom neighboring
p2686
aVfrom neighbor
p2687
atp2688
a(I5
(lp2689
Vfrom killing
p2690
aVfrom kill
p2691
atp2692
a(I5
(lp2693
Vfrom drifting
p2694
aVfrom drift
p2695
atp2696
a(I5
(lp2697
Vfrom developing
p2698
aVfrom develop
p2699
atp2700
a(I5
(lp2701
Vfrom collecting
p2702
aVfrom collect
p2703
atp2704
a(I5
(lp2705
Vfrom changing
p2706
aVfrom chang
p2707
atp2708
a(I5
(lp2709
Vfrom bursting
p2710
aVfrom burst
p2711
atp2712
a(I5
(lp2713
Vfor visiting
p2714
aVfor visit
p2715
atp2716
a(I5
(lp2717
Vfor viewing
p2718
aVfor view
p2719
atp2720
a(I5
(lp2721
Vfor varying
p2722
aVfor vary
p2723
atp2724
a(I5
(lp2725
Vfor rolling
p2726
aVfor roll
p2727
atp2728
a(I5
(lp2729
Vfor riding
p2730
aVfor rid
p2731
atp2732
a(I5
(lp2733
Vfor pumping
p2734
aVfor pump
p2735
atp2736
a(I5
(lp2737
Vfor mixing
p2738
aVfor mix
p2739
atp2740
a(I5
(lp2741
Vfor loading
p2742
aVfor load
p2743
atp2744
a(I5
(lp2745
Vfor hauling
p2746
aVfor haul
p2747
atp2748
a(I5
(lp2749
Vfor grasping
p2750
aVfor grasp
p2751
atp2752
a(I5
(lp2753
Vfor fixing
p2754
aVfor fix
p2755
atp2756
a(I5
(lp2757
Vfor discovering
p2758
aVfor discover
p2759
atp2760
a(I5
(lp2761
Vfor asking
p2762
aVfor ask
p2763
atp2764
a(I5
(lp2765
Vfor allowing
p2766
aVfor allow
p2767
atp2768
a(I5
(lp2769
Vfor adjusting
p2770
aVfor adjust
p2771
atp2772
a(I5
(lp2773
Vfor adding
p2774
aVfor add
p2775
atp2776
a(I5
(lp2777
Vfor accepting
p2778
aVfor accept
p2779
atp2780
a(I5
(lp2781
Vby twisting
p2782
aVby twist
p2783
atp2784
a(I5
(lp2785
Vby tearing
p2786
aVby tear
p2787
atp2788
a(I5
(lp2789
Vby standing
p2790
aVby stand
p2791
atp2792
a(I5
(lp2793
Vby spending
p2794
aVby spend
p2795
atp2796
a(I5
(lp2797
Vby soaking
p2798
aVby soak
p2799
atp2800
a(I5
(lp2801
Vby scattering
p2802
aVby scatter
p2803
atp2804
a(I5
(lp2805
Vby remembering
p2806
aVby remember
p2807
atp2808
a(I5
(lp2809
Vby recalling
p2810
aVby recall
p2811
atp2812
a(I5
(lp2813
Vby obeying
p2814
aVby obey
p2815
atp2816
a(I5
(lp2817
Vby melting
p2818
aVby melt
p2819
atp2820
a(I5
(lp2821
Vby lending
p2822
aVby lend
p2823
atp2824
a(I5
(lp2825
Vby killing
p2826
aVby kill
p2827
atp2828
a(I5
(lp2829
Vby jumping
p2830
aVby jump
p2831
atp2832
a(I5
(lp2833
Vby hearing
p2834
aVby hear
p2835
atp2836
a(I5
(lp2837
Vby grinding
p2838
aVby grind
p2839
atp2840
a(I5
(lp2841
Vby denying
p2842
aVby deny
p2843
atp2844
a(I5
(lp2845
Vby conquering
p2846
aVby conquer
p2847
atp2848
a(I5
(lp2849
Vby attending
p2850
aVby attend
p2851
atp2852
a(I5
(lp2853
Vby answering
p2854
aVby answer
p2855
atp2856
a(I5
(lp2857
Vbefore processing
p2858
aVbefore process
p2859
atp2860
a(I5
(lp2861
Vat repairing
p2862
aVat repair
p2863
atp2864
a(I5
(lp2865
Vat reading
p2866
aVat read
p2867
atp2868
a(I5
(lp2869
Vat learning
p2870
aVat learn
p2871
atp2872
a(I5
(lp2873
Vas washing
p2874
aVas wash
p2875
atp2876
a(I5
(lp2877
Vas walking
p2878
aVas walk
p2879
atp2880
a(I5
(lp2881
Vas keeping
p2882
aVas keep
p2883
atp2884
a(I5
(lp2885
Vas grinding
p2886
aVas grind
p2887
atp2888
a(I5
(lp2889
Vas fighting
p2890
aVas fight
p2891
atp2892
a(I5
(lp2893
Varound trying
p2894
aVaround try
p2895
atp2896
a(I5
(lp2897
Varound saying
p2898
aVaround say
p2899
atp2900
a(I5
(lp2901
Vafter walking
p2902
aVafter walk
p2903
atp2904
a(I5
(lp2905
Vafter traveling
p2906
aVafter travel
p2907
atp2908
a(I5
(lp2909
Vafter starting
p2910
aVafter start
p2911
atp2912
a(I5
(lp2913
Vafter resting
p2914
aVafter rest
p2915
atp2916
a(I5
(lp2917
Vafter fighting
p2918
aVafter fight
p2919
atp2920
a(I5
(lp2921
Vafter doing
p2922
aVafter do
p2923
atp2924
a(I5
(lp2925
Vabout wearing
p2926
aVabout wear
p2927
atp2928
a(I5
(lp2929
Vabout telling
p2930
aVabout tell
p2931
atp2932
a(I5
(lp2933
Vabout selling
p2934
aVabout sell
p2935
atp2936
a(I5
(lp2937
Vabout developing
p2938
aVabout develop
p2939
atp2940
a(I5
(lp2941
Vabout camping
p2942
aVabout camp
p2943
atp2944
a(I5
(lp2945
Vabout asking
p2946
aVabout ask
p2947
atp2948
a(I4
(lp2949
Vwithout reading
p2950
aVwithout read
p2951
atp2952
a(I4
(lp2953
Vwithout meeting
p2954
aVwithout meet
p2955
atp2956
a(I4
(lp2957
Vwithout counting
p2958
aVwithout count
p2959
atp2960
a(I4
(lp2961
Vwith putting
p2962
aVwith putt
p2963
atp2964
a(I4
(lp2965
Vwith maintaining
p2966
aVwith maintain
p2967
atp2968
a(I4
(lp2969
Vwith keeping
p2970
aVwith keep
p2971
atp2972
a(I4
(lp2973
Vwith hearing
p2974
aVwith hear
p2975
atp2976
a(I4
(lp2977
Vwith going
p2978
aVwith go
p2979
atp2980
a(I4
(lp2981
Vwith gathering
p2982
aVwith gather
p2983
atp2984
a(I4
(lp2985
Vwith discovering
p2986
aVwith discover
p2987
atp2988
a(I4
(lp2989
Vwhile watching
p2990
aVwhile watch
p2991
atp2992
a(I4
(lp2993
Vwhile speaking
p2994
aVwhile speak
p2995
atp2996
a(I4
(lp2997
Vwhile sleeping
p2998
aVwhile sleep
p2999
atp3000
a(I4
(lp3001
Vwhile riding
p3002
aVwhile rid
p3003
atp3004
a(I4
(lp3005
Vwhile helping
p3006
aVwhile help
p3007
atp3008
a(I4
(lp3009
Vwhile growing
p3010
aVwhile grow
p3011
atp3012
a(I4
(lp3013
Vwhile going
p3014
aVwhile go
p3015
atp3016
a(I4
(lp3017
Vwhile flying
p3018
aVwhile fly
p3019
atp3020
a(I4
(lp3021
Vwhile carrying
p3022
aVwhile carry
p3023
atp3024
a(I4
(lp3025
Vwhile awaiting
p3026
aVwhile await
p3027
atp3028
a(I4
(lp3029
Vup carrying
p3030
aVup carry
p3031
atp3032
a(I4
(lp3033
Vup according
p3034
aVup accord
p3035
atp3036
a(I4
(lp3037
Vtoward establishing
p3038
aVtoward establish
p3039
atp3040
a(I4
(lp3041
Vthat yelling
p3042
aVthat yell
p3043
atp3044
a(I4
(lp3045
Vthat stealing
p3046
aVthat steal
p3047
atp3048
a(I4
(lp3049
Vthat listening
p3050
aVthat listen
p3051
atp3052
a(I4
(lp3053
Vthat accepting
p3054
aVthat accept
p3055
atp3056
a(I4
(lp3057
Vthan playing
p3058
aVthan play
p3059
atp3060
a(I4
(lp3061
Von reaching
p3062
aVon reach
p3063
atp3064
a(I4
(lp3065
Von maintaining
p3066
aVon maintain
p3067
atp3068
a(I4
(lp3069
Von decaying
p3070
aVon decay
p3071
atp3072
a(I4
(lp3073
Von changing
p3074
aVon chang
p3075
atp3076
a(I4
(lp3077
Vof succeeding
p3078
aVof succeed
p3079
atp3080
a(I4
(lp3081
Vof stretching
p3082
aVof stretch
p3083
atp3084
a(I4
(lp3085
Vof spreading
p3086
aVof spread
p3087
atp3088
a(I4
(lp3089
Vof roaming
p3090
aVof roam
p3091
atp3092
a(I4
(lp3093
Vof reflecting
p3094
aVof reflect
p3095
atp3096
a(I4
(lp3097
Vof recovering
p3098
aVof recover
p3099
atp3100
a(I4
(lp3101
Vof punishing
p3102
aVof punish
p3103
atp3104
a(I4
(lp3105
Vof punching
p3106
aVof punch
p3107
atp3108
a(I4
(lp3109
Vof pretending
p3110
aVof pretend
p3111
atp3112
a(I4
(lp3113
Vof marrying
p3114
aVof marry
p3115
atp3116
a(I4
(lp3117
Vof lobbying
p3118
aVof lobby
p3119
atp3120
a(I4
(lp3121
Vof labeling
p3122
aVof label
p3123
atp3124
a(I4
(lp3125
Vof investing
p3126
aVof invest
p3127
atp3128
a(I4
(lp3129
Vof gleaming
p3130
aVof gleam
p3131
atp3132
a(I4
(lp3133
Vof fastening
p3134
aVof fasten
p3135
atp3136
a(I4
(lp3137
Vof employing
p3138
aVof employ
p3139
atp3140
a(I4
(lp3141
Vof discussing
p3142
aVof discuss
p3143
atp3144
a(I4
(lp3145
Vof differing
p3146
aVof differ
p3147
atp3148
a(I4
(lp3149
Vof destroying
p3150
aVof destroy
p3151
atp3152
a(I4
(lp3153
Vof denying
p3154
aVof deny
p3155
atp3156
a(I4
(lp3157
Vof crawling
p3158
aVof crawl
p3159
atp3160
a(I4
(lp3161
Vof biting
p3162
aVof bit
p3163
atp3164
a(I4
(lp3165
Vof absorbing
p3166
aVof absorb
p3167
atp3168
a(I4
(lp3169
Vlike wearing
p3170
aVlike wear
p3171
atp3172
a(I4
(lp3173
Vlike learning
p3174
aVlike learn
p3175
atp3176
a(I4
(lp3177
Vlike knowing
p3178
aVlike know
p3179
atp3180
a(I4
(lp3181
Vlike asking
p3182
aVlike ask
p3183
atp3184
a(I4
(lp3185
Vin spreading
p3186
aVin spread
p3187
atp3188
a(I4
(lp3189
Vin sorting
p3190
aVin sort
p3191
atp3192
a(I4
(lp3193
Vin reporting
p3194
aVin report
p3195
atp3196
a(I4
(lp3197
Vin rejecting
p3198
aVin reject
p3199
atp3200
a(I4
(lp3201
Vin labeling
p3202
aVin label
p3203
atp3204
a(I4
(lp3205
Vin insisting
p3206
aVin insist
p3207
atp3208
a(I4
(lp3209
Vin feeling
p3210
aVin feel
p3211
atp3212
a(I4
(lp3213
Vin extending
p3214
aVin extend
p3215
atp3216
a(I4
(lp3217
Vin entering
p3218
aVin enter
p3219
atp3220
a(I4
(lp3221
Vin earning
p3222
aVin earn
p3223
atp3224
a(I4
(lp3225
Vin destroying
p3226
aVin destroy
p3227
atp3228
a(I4
(lp3229
Vin crying
p3230
aVin cry
p3231
atp3232
a(I4
(lp3233
Vin conquering
p3234
aVin conquer
p3235
atp3236
a(I4
(lp3237
Vin burning
p3238
aVin burn
p3239
atp3240
a(I4
(lp3241
Vin assigning
p3242
aVin assign
p3243
atp3244
a(I4
(lp3245
Vfrom understanding
p3246
aVfrom understand
p3247
atp3248
a(I4
(lp3249
Vfrom traveling
p3250
aVfrom travel
p3251
atp3252
a(I4
(lp3253
Vfrom stealing
p3254
aVfrom steal
p3255
atp3256
a(I4
(lp3257
Vfrom spending
p3258
aVfrom spend
p3259
atp3260
a(I4
(lp3261
Vfrom showing
p3262
aVfrom show
p3263
atp3264
a(I4
(lp3265
Vfrom riding
p3266
aVfrom rid
p3267
atp3268
a(I4
(lp3269
Vfrom passing
p3270
aVfrom pass
p3271
atp3272
a(I4
(lp3273
Vfrom mixing
p3274
aVfrom mix
p3275
atp3276
a(I4
(lp3277
Vfrom keeping
p3278
aVfrom keep
p3279
atp3280
a(I4
(lp3281
Vfrom dumping
p3282
aVfrom dump
p3283
atp3284
a(I4
(lp3285
Vfrom crossing
p3286
aVfrom cross
p3287
atp3288
a(I4
(lp3289
Vfrom consulting
p3290
aVfrom consult
p3291
atp3292
a(I4
(lp3293
Vfrom conquering
p3294
aVfrom conquer
p3295
atp3296
a(I4
(lp3297
Vfrom appearing
p3298
aVfrom appear
p3299
atp3300
a(I4
(lp3301
Vfor wishing
p3302
aVfor wish
p3303
atp3304
a(I4
(lp3305
Vfor swallowing
p3306
aVfor swallow
p3307
atp3308
a(I4
(lp3309
Vfor spending
p3310
aVfor spend
p3311
atp3312
a(I4
(lp3313
Vfor sorting
p3314
aVfor sort
p3315
atp3316
a(I4
(lp3317
Vfor labeling
p3318
aVfor label
p3319
atp3320
a(I4
(lp3321
Vfor kicking
p3322
aVfor kick
p3323
atp3324
a(I4
(lp3325
Vfor hiding
p3326
aVfor hid
p3327
atp3328
a(I4
(lp3329
Vfor hanging
p3330
aVfor hang
p3331
atp3332
a(I4
(lp3333
Vfor counting
p3334
aVfor count
p3335
atp3336
a(I4
(lp3337
Vfor connecting
p3338
aVfor connect
p3339
atp3340
a(I4
(lp3341
Vfor attending
p3342
aVfor attend
p3343
atp3344
a(I4
(lp3345
Vfor adopting
p3346
aVfor adopt
p3347
atp3348
a(I4
(lp3349
Vduring grinding
p3350
aVduring grind
p3351
atp3352
a(I4
(lp3353
Vdown looking
p3354
aVdown look
p3355
atp3356
a(I4
(lp3357
Vby weakening
p3358
aVby weaken
p3359
atp3360
a(I4
(lp3361
Vby tying
p3362
aVby ty
p3363
atp3364
a(I4
(lp3365
Vby threatening
p3366
aVby threaten
p3367
atp3368
a(I4
(lp3369
Vby sliding
p3370
aVby slid
p3371
atp3372
a(I4
(lp3373
Vby scratching
p3374
aVby scratch
p3375
atp3376
a(I4
(lp3377
Vby scraping
p3378
aVby scrap
p3379
atp3380
a(I4
(lp3381
Vby rolling
p3382
aVby roll
p3383
atp3384
a(I4
(lp3385
Vby reviewing
p3386
aVby review
p3387
atp3388
a(I4
(lp3389
Vby publishing
p3390
aVby publish
p3391
atp3392
a(I4
(lp3393
Vby protecting
p3394
aVby protect
p3395
atp3396
a(I4
(lp3397
Vby prohibiting
p3398
aVby prohibit
p3399
atp3400
a(I4
(lp3401
Vby pretending
p3402
aVby pretend
p3403
atp3404
a(I4
(lp3405
Vby matching
p3406
aVby match
p3407
atp3408
a(I4
(lp3409
Vby marrying
p3410
aVby marry
p3411
atp3412
a(I4
(lp3413
Vby interacting
p3414
aVby interact
p3415
atp3416
a(I4
(lp3417
Vby insisting
p3418
aVby insist
p3419
atp3420
a(I4
(lp3421
Vby grasping
p3422
aVby grasp
p3423
atp3424
a(I4
(lp3425
Vby dumping
p3426
aVby dump
p3427
atp3428
a(I4
(lp3429
Vby delivering
p3430
aVby deliver
p3431
atp3432
a(I4
(lp3433
Vby copying
p3434
aVby copy
p3435
atp3436
a(I4
(lp3437
Vby climbing
p3438
aVby climb
p3439
atp3440
a(I4
(lp3441
Vby cheering
p3442
aVby cheer
p3443
atp3444
a(I4
(lp3445
Vby beating
p3446
aVby beat
p3447
atp3448
a(I4
(lp3449
Vby accounting
p3450
aVby account
p3451
atp3452
a(I4
(lp3453
Vbetween neighboring
p3454
aVbetween neighbor
p3455
atp3456
a(I4
(lp3457
Vbesides working
p3458
aVbesides work
p3459
atp3460
a(I4
(lp3461
Vbefore swallowing
p3462
aVbefore swallow
p3463
atp3464
a(I4
(lp3465
Vbefore signing
p3466
aVbefore sign
p3467
atp3468
a(I4
(lp3469
Vbefore selecting
p3470
aVbefore select
p3471
atp3472
a(I4
(lp3473
Vbefore presenting
p3474
aVbefore present
p3475
atp3476
a(I4
(lp3477
Vbefore planting
p3478
aVbefore plant
p3479
atp3480
a(I4
(lp3481
Vbefore looking
p3482
aVbefore look
p3483
atp3484
a(I4
(lp3485
Vbefore calling
p3486
aVbefore call
p3487
atp3488
a(I4
(lp3489
Vbefore accepting
p3490
aVbefore accept
p3491
atp3492
a(I4
(lp3493
Vbecause learning
p3494
aVbecause learn
p3495
atp3496
a(I4
(lp3497
Vat growing
p3498
aVat grow
p3499
atp3500
a(I4
(lp3501
Vat doing
p3502
aVat do
p3503
atp3504
a(I4
(lp3505
Vat discovering
p3506
aVat discover
p3507
atp3508
a(I4
(lp3509
Vat boarding
p3510
aVat board
p3511
atp3512
a(I4
(lp3513
Vas trying
p3514
aVas try
p3515
atp3516
a(I4
(lp3517
Vas lifting
p3518
aVas lift
p3519
atp3520
a(I4
(lp3521
Vas flying
p3522
aVas fly
p3523
atp3524
a(I4
(lp3525
Vas checking
p3526
aVas check
p3527
atp3528
a(I4
(lp3529
Vafter talking
p3530
aVafter talk
p3531
atp3532
a(I4
(lp3533
Vafter speaking
p3534
aVafter speak
p3535
atp3536
a(I4
(lp3537
Vafter signing
p3538
aVafter sign
p3539
atp3540
a(I4
(lp3541
Vafter sending
p3542
aVafter send
p3543
atp3544
a(I4
(lp3545
Vafter returning
p3546
aVafter return
p3547
atp3548
a(I4
(lp3549
Vafter posting
p3550
aVafter post
p3551
atp3552
a(I4
(lp3553
Vafter meeting
p3554
aVafter meet
p3555
atp3556
a(I4
(lp3557
Vafter learning
p3558
aVafter learn
p3559
atp3560
a(I4
(lp3561
Vafter grinding
p3562
aVafter grind
p3563
atp3564
a(I4
(lp3565
Vafter feeding
p3566
aVafter feed
p3567
atp3568
a(I4
(lp3569
Vafter falling
p3570
aVafter fall
p3571
atp3572
a(I4
(lp3573
Vafter considering
p3574
aVafter consider
p3575
atp3576
a(I4
(lp3577
Vafter asking
p3578
aVafter ask
p3579
atp3580
a(I4
(lp3581
Vafter adjusting
p3582
aVafter adjust
p3583
atp3584
a(I4
(lp3585
Vabout wanting
p3586
aVabout want
p3587
atp3588
a(I4
(lp3589
Vabout walking
p3590
aVabout walk
p3591
atp3592
a(I4
(lp3593
Vabout visiting
p3594
aVabout visit
p3595
atp3596
a(I4
(lp3597
Vabout teaching
p3598
aVabout teach
p3599
atp3600
a(I4
(lp3601
Vabout saying
p3602
aVabout say
p3603
atp3604
a(I4
(lp3605
Vabout riding
p3606
aVabout rid
p3607
atp3608
a(I4
(lp3609
Vabout feeling
p3610
aVabout feel
p3611
atp3612
a(I4
(lp3613
Vabout earning
p3614
aVabout earn
p3615
atp3616
a(I4
(lp3617
Vabout classifying
p3618
aVabout classify
p3619
atp3620
a(I3
(lp3621
Vworth learning
p3622
aVworth learn
p3623
atp3624
a(I3
(lp3625
Vwithout weeping
p3626
aVwithout weep
p3627
atp3628
a(I3
(lp3629
Vwithout wanting
p3630
aVwithout want
p3631
atp3632
a(I3
(lp3633
Vwithout traveling
p3634
aVwithout travel
p3635
atp3636
a(I3
(lp3637
Vwithout spending
p3638
aVwithout spend
p3639
atp3640
a(I3
(lp3641
Vwithout showing
p3642
aVwithout show
p3643
atp3644
a(I3
(lp3645
Vwithout seeming
p3646
aVwithout seem
p3647
atp3648
a(I3
(lp3649
Vwithout reaching
p3650
aVwithout reach
p3651
atp3652
a(I3
(lp3653
Vwithout printing
p3654
aVwithout print
p3655
atp3656
a(I3
(lp3657
Vwithout owning
p3658
aVwithout own
p3659
atp3660
a(I3
(lp3661
Vwithout knocking
p3662
aVwithout knock
p3663
atp3664
a(I3
(lp3665
Vwithout killing
p3666
aVwithout kill
p3667
atp3668
a(I3
(lp3669
Vwithout hiding
p3670
aVwithout hid
p3671
atp3672
a(I3
(lp3673
Vwithout following
p3674
aVwithout follow
p3675
atp3676
a(I3
(lp3677
Vwithout explaining
p3678
aVwithout explain
p3679
atp3680
a(I3
(lp3681
Vwithout eating
p3682
aVwithout eat
p3683
atp3684
a(I3
(lp3685
Vwithout crossing
p3686
aVwithout cross
p3687
atp3688
a(I3
(lp3689
Vwithout caring
p3690
aVwithout car
p3691
atp3692
a(I3
(lp3693
Vwithin hearing
p3694
aVwithin hear
p3695
atp3696
a(I3
(lp3697
Vwith watching
p3698
aVwith watch
p3699
atp3700
a(I3
(lp3701
Vwith warning
p3702
aVwith warn
p3703
atp3704
a(I3
(lp3705
Vwith towering
p3706
aVwith tower
p3707
atp3708
a(I3
(lp3709
Vwith staying
p3710
aVwith stay
p3711
atp3712
a(I3
(lp3713
Vwith owning
p3714
aVwith own
p3715
atp3716
a(I3
(lp3717
Vwith laughing
p3718
aVwith laugh
p3719
atp3720
a(I3
(lp3721
Vwith inventing
p3722
aVwith invent
p3723
atp3724
a(I3
(lp3725
Vwith filling
p3726
aVwith fill
p3727
atp3728
a(I3
(lp3729
Vwith fighting
p3730
aVwith fight
p3731
atp3732
a(I3
(lp3733
Vwith doing
p3734
aVwith do
p3735
atp3736
a(I3
(lp3737
Vwith boiling
p3738
aVwith boil
p3739
atp3740
a(I3
(lp3741
Vwhile viewing
p3742
aVwhile view
p3743
atp3744
a(I3
(lp3745
Vwhile thinking
p3746
aVwhile think
p3747
atp3748
a(I3
(lp3749
Vwhile talking
p3750
aVwhile talk
p3751
atp3752
a(I3
(lp3753
Vwhile sailing
p3754
aVwhile sail
p3755
atp3756
a(I3
(lp3757
Vwhile paying
p3758
aVwhile pay
p3759
atp3760
a(I3
(lp3761
Vwhile leading
p3762
aVwhile lead
p3763
atp3764
a(I3
(lp3765
Vwhile enjoying
p3766
aVwhile enjoy
p3767
atp3768
a(I3
(lp3769
Vwhile eating
p3770
aVwhile eat
p3771
atp3772
a(I3
(lp3773
Vwhile crossing
p3774
aVwhile cross
p3775
atp3776
a(I3
(lp3777
Vwhile blocking
p3778
aVwhile block
p3779
atp3780
a(I3
(lp3781
Vwhile attending
p3782
aVwhile attend
p3783
atp3784
a(I3
(lp3785
Vupon finding
p3786
aVupon find
p3787
atp3788
a(I3
(lp3789
Vup shouting
p3790
aVup shout
p3791
atp3792
a(I3
(lp3793
Vtoward helping
p3794
aVtoward help
p3795
atp3796
a(I3
(lp3797
Vthrough existing
p3798
aVthrough exist
p3799
atp3800
a(I3
(lp3801
Vthan learning
p3802
aVthan learn
p3803
atp3804
a(I3
(lp3805
Vthan hanging
p3806
aVthan hang
p3807
atp3808
a(I3
(lp3809
Vthan following
p3810
aVthan follow
p3811
atp3812
a(I3
(lp3813
Vthan drawing
p3814
aVthan draw
p3815
atp3816
a(I3
(lp3817
Vover being
p3818
aVover be
p3819
atp3820
a(I3
(lp3821
Von understanding
p3822
aVon understand
p3823
atp3824
a(I3
(lp3825
Von speaking
p3826
aVon speak
p3827
atp3828
a(I3
(lp3829
Von selling
p3830
aVon sell
p3831
atp3832
a(I3
(lp3833
Von saying
p3834
aVon say
p3835
atp3836
a(I3
(lp3837
Von rolling
p3838
aVon roll
p3839
atp3840
a(I3
(lp3841
Von pretending
p3842
aVon pretend
p3843
atp3844
a(I3
(lp3845
Von obtaining
p3846
aVon obtain
p3847
atp3848
a(I3
(lp3849
Von killing
p3850
aVon kill
p3851
atp3852
a(I3
(lp3853
Von existing
p3854
aVon exist
p3855
atp3856
a(I3
(lp3857
Von collecting
p3858
aVon collect
p3859
atp3860
a(I3
(lp3861
Von carrying
p3862
aVon carry
p3863
atp3864
a(I3
(lp3865
Von buying
p3866
aVon buy
p3867
atp3868
a(I3
(lp3869
Von asking
p3870
aVon ask
p3871
atp3872
a(I3
(lp3873
Vof yelling
p3874
aVof yell
p3875
atp3876
a(I3
(lp3877
Vof weeping
p3878
aVof weep
p3879
atp3880
a(I3
(lp3881
Vof visiting
p3882
aVof visit
p3883
atp3884
a(I3
(lp3885
Vof vanishing
p3886
aVof vanish
p3887
atp3888
a(I3
(lp3889
Vof sliding
p3890
aVof slid
p3891
atp3892
a(I3
(lp3893
Vof sewing
p3894
aVof sew
p3895
atp3896
a(I3
(lp3897
Vof satisfying
p3898
aVof satisfy
p3899
atp3900
a(I3
(lp3901
Vof retaining
p3902
aVof retain
p3903
atp3904
a(I3
(lp3905
Vof rejecting
p3906
aVof reject
p3907
atp3908
a(I3
(lp3909
Vof recruiting
p3910
aVof recruit
p3911
atp3912
a(I3
(lp3913
Vof proceeding
p3914
aVof proceed
p3915
atp3916
a(I3
(lp3917
Vof peeling
p3918
aVof peel
p3919
atp3920
a(I3
(lp3921
Vof orbiting
p3922
aVof orbit
p3923
atp3924
a(I3
(lp3925
Vof obeying
p3926
aVof obey
p3927
atp3928
a(I3
(lp3929
Vof leaking
p3930
aVof leak
p3931
atp3932
a(I3
(lp3933
Vof grasping
p3934
aVof grasp
p3935
atp3936
a(I3
(lp3937
Vof flourishing
p3938
aVof flourish
p3939
atp3940
a(I3
(lp3941
Vof drifting
p3942
aVof drift
p3943
atp3944
a(I3
(lp3945
Vof conquering
p3946
aVof conquer
p3947
atp3948
a(I3
(lp3949
Vof connecting
p3950
aVof connect
p3951
atp3952
a(I3
(lp3953
Vof bumping
p3954
aVof bump
p3955
atp3956
a(I3
(lp3957
Vof attending
p3958
aVof attend
p3959
atp3960
a(I3
(lp3961
Vof assisting
p3962
aVof assist
p3963
atp3964
a(I3
(lp3965
Vof appearing
p3966
aVof appear
p3967
atp3968
a(I3
(lp3969
Vof adopting
p3970
aVof adopt
p3971
atp3972
a(I3
(lp3973
Vnext following
p3974
aVnext follow
p3975
atp3976
a(I3
(lp3977
Vlike standing
p3978
aVlike stand
p3979
atp3980
a(I3
(lp3981
Vlike owning
p3982
aVlike own
p3983
atp3984
a(I3
(lp3985
Vlike losing
p3986
aVlike los
p3987
atp3988
a(I3
(lp3989
Vlike keeping
p3990
aVlike keep
p3991
atp3992
a(I3
(lp3993
Vlike jumping
p3994
aVlike jump
p3995
atp3996
a(I3
(lp3997
Vlike fighting
p3998
aVlike fight
p3999
atp4000
a(I3
(lp4001
Vlike falling
p4002
aVlike fall
p4003
atp4004
a(I3
(lp4005
Vlike climbing
p4006
aVlike climb
p4007
atp4008
a(I3
(lp4009
Vlike calling
p4010
aVlike call
p4011
atp4012
a(I3
(lp4013
Vinto signing
p4014
aVinto sign
p4015
atp4016
a(I3
(lp4017
Vinto putting
p4018
aVinto putt
p4019
atp4020
a(I3
(lp4021
Vinto neighboring
p4022
aVinto neighbor
p4023
atp4024
a(I3
(lp4025
Vinto building
p4026
aVinto build
p4027
atp4028
a(I3
(lp4029
Vinto boiling
p4030
aVinto boil
p4031
atp4032
a(I3
(lp4033
Vin shooting
p4034
aVin shoot
p4035
atp4036
a(I3
(lp4037
Vin shifting
p4038
aVin shift
p4039
atp4040
a(I3
(lp4041
Vin remembering
p4042
aVin remember
p4043
atp4044
a(I3
(lp4045
Vin publishing
p4046
aVin publish
p4047
atp4048
a(I3
(lp4049
Vin pouring
p4050
aVin pour
p4051
atp4052
a(I3
(lp4053
Vin packing
p4054
aVin pack
p4055
atp4056
a(I3
(lp4057
Vin owning
p4058
aVin own
p4059
atp4060
a(I3
(lp4061
Vin lobbying
p4062
aVin lobby
p4063
atp4064
a(I3
(lp4065
Vin laughing
p4066
aVin laugh
p4067
atp4068
a(I3
(lp4069
Vin joining
p4070
aVin join
p4071
atp4072
a(I3
(lp4073
Vin implementing
p4074
aVin implement
p4075
atp4076
a(I3
(lp4077
Vin grasping
p4078
aVin grasp
p4079
atp4080
a(I3
(lp4081
Vin gathering
p4082
aVin gather
p4083
atp4084
a(I3
(lp4085
Vin existing
p4086
aVin exist
p4087
atp4088
a(I3
(lp4089
Vin descending
p4090
aVin descend
p4091
atp4092
a(I3
(lp4093
Vin delivering
p4094
aVin deliver
p4095
atp4096
a(I3
(lp4097
Vin converting
p4098
aVin convert
p4099
atp4100
a(I3
(lp4101
Vin complaining
p4102
aVin complain
p4103
atp4104
a(I3
(lp4105
Vin claiming
p4106
aVin claim
p4107
atp4108
a(I3
(lp4109
Vin catching
p4110
aVin catch
p4111
atp4112
a(I3
(lp4113
Vin avoiding
p4114
aVin avoid
p4115
atp4116
a(I3
(lp4117
Vin attending
p4118
aVin attend
p4119
atp4120
a(I3
(lp4121
Vin assisting
p4122
aVin assist
p4123
atp4124
a(I3
(lp4125
Vin altering
p4126
aVin alter
p4127
atp4128
a(I3
(lp4129
Vin allowing
p4130
aVin allow
p4131
atp4132
a(I3
(lp4133
Vin adding
p4134
aVin add
p4135
atp4136
a(I3
(lp4137
Vif reading
p4138
aVif read
p4139
atp4140
a(I3
(lp4141
Vfrom visiting
p4142
aVfrom visit
p4143
atp4144
a(I3
(lp4145
Vfrom touching
p4146
aVfrom touch
p4147
atp4148
a(I3
(lp4149
Vfrom throwing
p4150
aVfrom throw
p4151
atp4152
a(I3
(lp4153
Vfrom swelling
p4154
aVfrom swell
p4155
atp4156
a(I3
(lp4157
Vfrom sucking
p4158
aVfrom suck
p4159
atp4160
a(I3
(lp4161
Vfrom speaking
p4162
aVfrom speak
p4163
atp4164
a(I3
(lp4165
Vfrom shifting
p4166
aVfrom shift
p4167
atp4168
a(I3
(lp4169
Vfrom sending
p4170
aVfrom send
p4171
atp4172
a(I3
(lp4173
Vfrom putting
p4174
aVfrom putt
p4175
atp4176
a(I3
(lp4177
Vfrom paying
p4178
aVfrom pay
p4179
atp4180
a(I3
(lp4181
Vfrom obtaining
p4182
aVfrom obtain
p4183
atp4184
a(I3
(lp4185
Vfrom hiding
p4186
aVfrom hid
p4187
atp4188
a(I3
(lp4189
Vfrom hanging
p4190
aVfrom hang
p4191
atp4192
a(I3
(lp4193
Vfrom failing
p4194
aVfrom fail
p4195
atp4196
a(I3
(lp4197
Vfrom enjoying
p4198
aVfrom enjoy
p4199
atp4200
a(I3
(lp4201
Vfrom denying
p4202
aVfrom deny
p4203
atp4204
a(I3
(lp4205
Vfrom catching
p4206
aVfrom catch
p4207
atp4208
a(I3
(lp4209
Vfrom bumping
p4210
aVfrom bump
p4211
atp4212
a(I3
(lp4213
Vfrom biting
p4214
aVfrom bit
p4215
atp4216
a(I3
(lp4217
Vfrom attempting
p4218
aVfrom attempt
p4219
atp4220
a(I3
(lp4221
Vfrom accepting
p4222
aVfrom accept
p4223
atp4224
a(I3
(lp4225
Vfor throwing
p4226
aVfor throw
p4227
atp4228
a(I3
(lp4229
Vfor tearing
p4230
aVfor tear
p4231
atp4232
a(I3
(lp4233
Vfor stretching
p4234
aVfor stretch
p4235
atp4236
a(I3
(lp4237
Vfor strengthening
p4238
aVfor strengthen
p4239
atp4240
a(I3
(lp4241
Vfor standing
p4242
aVfor stand
p4243
atp4244
a(I3
(lp4245
Vfor spreading
p4246
aVfor spread
p4247
atp4248
a(I3
(lp4249
Vfor sewing
p4250
aVfor sew
p4251
atp4252
a(I3
(lp4253
Vfor reporting
p4254
aVfor report
p4255
atp4256
a(I3
(lp4257
Vfor rebuilding
p4258
aVfor rebuild
p4259
atp4260
a(I3
(lp4261
Vfor punishing
p4262
aVfor punish
p4263
atp4264
a(I3
(lp4265
Vfor punching
p4266
aVfor punch
p4267
atp4268
a(I3
(lp4269
Vfor pulling
p4270
aVfor pull
p4271
atp4272
a(I3
(lp4273
Vfor publishing
p4274
aVfor publish
p4275
atp4276
a(I3
(lp4277
Vfor plowing
p4278
aVfor plow
p4279
atp4280
a(I3
(lp4281
Vfor mining
p4282
aVfor min
p4283
atp4284
a(I3
(lp4285
Vfor investing
p4286
aVfor invest
p4287
atp4288
a(I3
(lp4289
Vfor inserting
p4290
aVfor insert
p4291
atp4292
a(I3
(lp4293
Vfor implementing
p4294
aVfor implement
p4295
atp4296
a(I3
(lp4297
Vfor expanding
p4298
aVfor expand
p4299
atp4300
a(I3
(lp4301
Vfor existing
p4302
aVfor exist
p4303
atp4304
a(I3
(lp4305
Vfor destroying
p4306
aVfor destroy
p4307
atp4308
a(I3
(lp4309
Vfor delivering
p4310
aVfor deliver
p4311
atp4312
a(I3
(lp4313
Vfor converting
p4314
aVfor convert
p4315
atp4316
a(I3
(lp4317
Vfor considering
p4318
aVfor consider
p4319
atp4320
a(I3
(lp4321
Vfor biting
p4322
aVfor bit
p4323
atp4324
a(I3
(lp4325
Vfor attaching
p4326
aVfor attach
p4327
atp4328
a(I3
(lp4329
Vfor assigning
p4330
aVfor assign
p4331
atp4332
a(I3
(lp4333
Vfor acting
p4334
aVfor act
p4335
atp4336
a(I3
(lp4337
Vfor absorbing
p4338
aVfor absorb
p4339
atp4340
a(I3
(lp4341
Vby widening
p4342
aVby widen
p4343
atp4344
a(I3
(lp4345
Vby weighing
p4346
aVby weigh
p4347
atp4348
a(I3
(lp4349
Vby waiting
p4350
aVby wait
p4351
atp4352
a(I3
(lp4353
Vby uniting
p4354
aVby unit
p4355
atp4356
a(I3
(lp4357
Vby towering
p4358
aVby tower
p4359
atp4360
a(I3
(lp4361
Vby sweeping
p4362
aVby sweep
p4363
atp4364
a(I3
(lp4365
Vby swallowing
p4366
aVby swallow
p4367
atp4368
a(I3
(lp4369
Vby suffering
p4370
aVby suffer
p4371
atp4372
a(I3
(lp4373
Vby sucking
p4374
aVby suck
p4375
atp4376
a(I3
(lp4377
Vby spelling
p4378
aVby spell
p4379
atp4380
a(I3
(lp4381
Vby shooting
p4382
aVby shoot
p4383
atp4384
a(I3
(lp4385
Vby rounding
p4386
aVby round
p4387
atp4388
a(I3
(lp4389
Vby representing
p4390
aVby represent
p4391
atp4392
a(I3
(lp4393
Vby reporting
p4394
aVby report
p4395
atp4396
a(I3
(lp4397
Vby remaining
p4398
aVby remain
p4399
atp4400
a(I3
(lp4401
Vby rejecting
p4402
aVby reject
p4403
atp4404
a(I3
(lp4405
Vby reacting
p4406
aVby react
p4407
atp4408
a(I3
(lp4409
Vby neighboring
p4410
aVby neighbor
p4411
atp4412
a(I3
(lp4413
Vby leaning
p4414
aVby lean
p4415
atp4416
a(I3
(lp4417
Vby fixing
p4418
aVby fix
p4419
atp4420
a(I3
(lp4421
Vby defending
p4422
aVby defend
p4423
atp4424
a(I3
(lp4425
Vby defeating
p4426
aVby defeat
p4427
atp4428
a(I3
(lp4429
Vby dealing
p4430
aVby deal
p4431
atp4432
a(I3
(lp4433
Vby confronting
p4434
aVby confront
p4435
atp4436
a(I3
(lp4437
Vby breeding
p4438
aVby breed
p4439
atp4440
a(I3
(lp4441
Vby blending
p4442
aVby blend
p4443
atp4444
a(I3
(lp4445
Vbetween trying
p4446
aVbetween try
p4447
atp4448
a(I3
(lp4449
Vbesides keeping
p4450
aVbesides keep
p4451
atp4452
a(I3
(lp4453
Vbesides asking
p4454
aVbesides ask
p4455
atp4456
a(I3
(lp4457
Vbefore throwing
p4458
aVbefore throw
p4459
atp4460
a(I3
(lp4461
Vbefore saying
p4462
aVbefore say
p4463
atp4464
a(I3
(lp4465
Vbefore learning
p4466
aVbefore learn
p4467
atp4468
a(I3
(lp4469
Vbefore installing
p4470
aVbefore install
p4471
atp4472
a(I3
(lp4473
Vbefore inserting
p4474
aVbefore insert
p4475
atp4476
a(I3
(lp4477
Vbefore heading
p4478
aVbefore head
p4479
atp4480
a(I3
(lp4481
Vbefore finding
p4482
aVbefore find
p4483
atp4484
a(I3
(lp4485
Vbefore checking
p4486
aVbefore check
p4487
atp4488
a(I3
(lp4489
Vbefore changing
p4490
aVbefore chang
p4491
atp4492
a(I3
(lp4493
Vbefore adopting
p4494
aVbefore adopt
p4495
atp4496
a(I3
(lp4497
Vat kicking
p4498
aVat kick
p4499
atp4500
a(I3
(lp4501
Vat keeping
p4502
aVat keep
p4503
atp4504
a(I3
(lp4505
Vat existing
p4506
aVat exist
p4507
atp4508
a(I3
(lp4509
Vat developing
p4510
aVat develop
p4511
atp4512
a(I3
(lp4513
Vas understanding
p4514
aVas understand
p4515
atp4516
a(I3
(lp4517
Vas speaking
p4518
aVas speak
p4519
atp4520
a(I3
(lp4521
Vas sleeping
p4522
aVas sleep
p4523
atp4524
a(I3
(lp4525
Vas showing
p4526
aVas show
p4527
atp4528
a(I3
(lp4529
Vas resulting
p4530
aVas result
p4531
atp4532
a(I3
(lp4533
Vas representing
p4534
aVas represent
p4535
atp4536
a(I3
(lp4537
Vas offering
p4538
aVas offer
p4539
atp4540
a(I3
(lp4541
Vas holding
p4542
aVas hold
p4543
atp4544
a(I3
(lp4545
Vas gathering
p4546
aVas gather
p4547
atp4548
a(I3
(lp4549
Vas drinking
p4550
aVas drink
p4551
atp4552
a(I3
(lp4553
Vas containing
p4554
aVas contain
p4555
atp4556
a(I3
(lp4557
Vagainst eating
p4558
aVagainst eat
p4559
atp4560
a(I3
(lp4561
Vafter waiting
p4562
aVafter wait
p4563
atp4564
a(I3
(lp4565
Vafter trying
p4566
aVafter try
p4567
atp4568
a(I3
(lp4569
Vafter surveying
p4570
aVafter survey
p4571
atp4572
a(I3
(lp4573
Vafter standing
p4574
aVafter stand
p4575
atp4576
a(I3
(lp4577
Vafter putting
p4578
aVafter putt
p4579
atp4580
a(I3
(lp4581
Vafter processing
p4582
aVafter process
p4583
atp4584
a(I3
(lp4585
Vafter gaining
p4586
aVafter gain
p4587
atp4588
a(I3
(lp4589
Vafter establishing
p4590
aVafter establish
p4591
atp4592
a(I3
(lp4593
Vafter drying
p4594
aVafter dry
p4595
atp4596
a(I3
(lp4597
Vafter collecting
p4598
aVafter collect
p4599
atp4600
a(I3
(lp4601
Vafter checking
p4602
aVafter check
p4603
atp4604
a(I3
(lp4605
Vabout throwing
p4606
aVabout throw
p4607
atp4608
a(I3
(lp4609
Vabout thinking
p4610
aVabout think
p4611
atp4612
a(I3
(lp4613
Vabout stealing
p4614
aVabout steal
p4615
atp4616
a(I3
(lp4617
Vabout spending
p4618
aVabout spend
p4619
atp4620
a(I3
(lp4621
Vabout selecting
p4622
aVabout select
p4623
atp4624
a(I3
(lp4625
Vabout returning
p4626
aVabout return
p4627
atp4628
a(I3
(lp4629
Vabout paying
p4630
aVabout pay
p4631
atp4632
a(I3
(lp4633
Vabout opening
p4634
aVabout open
p4635
atp4636
a(I3
(lp4637
Vabout listening
p4638
aVabout listen
p4639
atp4640
a(I3
(lp4641
Vabout kicking
p4642
aVabout kick
p4643
atp4644
a(I3
(lp4645
Vabout jumping
p4646
aVabout jump
p4647
atp4648
a(I3
(lp4649
Vabout gathering
p4650
aVabout gather
p4651
atp4652
a(I3
(lp4653
Vabout collecting
p4654
aVabout collect
p4655
atp4656
a(I2
(lp4657
Vwithout wondering
p4658
aVwithout wonder
p4659
atp4660
a(I2
(lp4661
Vwithout wearing
p4662
aVwithout wear
p4663
atp4664
a(I2
(lp4665
Vwithout weakening
p4666
aVwithout weaken
p4667
atp4668
a(I2
(lp4669
Vwithout warming
p4670
aVwithout warm
p4671
atp4672
a(I2
(lp4673
Vwithout threatening
p4674
aVwithout threaten
p4675
atp4676
a(I2
(lp4677
Vwithout testing
p4678
aVwithout test
p4679
atp4680
a(I2
(lp4681
Vwithout talking
p4682
aVwithout talk
p4683
atp4684
a(I2
(lp4685
Vwithout slowing
p4686
aVwithout slow
p4687
atp4688
a(I2
(lp4689
Vwithout sinking
p4690
aVwithout sink
p4691
atp4692
a(I2
(lp4693
Vwithout seeking
p4694
aVwithout seek
p4695
atp4696
a(I2
(lp4697
Vwithout relying
p4698
aVwithout rely
p4699
atp4700
a(I2
(lp4701
Vwithout offering
p4702
aVwithout offer
p4703
atp4704
a(I2
(lp4705
Vwithout noting
p4706
aVwithout not
p4707
atp4708
a(I2
(lp4709
Vwithout laying
p4710
aVwithout lay
p4711
atp4712
a(I2
(lp4713
Vwithout identifying
p4714
aVwithout identify
p4715
atp4716
a(I2
(lp4717
Vwithout holding
p4718
aVwithout hold
p4719
atp4720
a(I2
(lp4721
Vwithout hanging
p4722
aVwithout hang
p4723
atp4724
a(I2
(lp4725
Vwithout expecting
p4726
aVwithout expect
p4727
atp4728
a(I2
(lp4729
Vwithout developing
p4730
aVwithout develop
p4731
atp4732
a(I2
(lp4733
Vwithout depending
p4734
aVwithout depend
p4735
atp4736
a(I2
(lp4737
Vwithout crying
p4738
aVwithout cry
p4739
atp4740
a(I2
(lp4741
Vwithout cracking
p4742
aVwithout crack
p4743
atp4744
a(I2
(lp4745
Vwithout checking
p4746
aVwithout check
p4747
atp4748
a(I2
(lp4749
Vwithout calling
p4750
aVwithout call
p4751
atp4752
a(I2
(lp4753
Vwithout burning
p4754
aVwithout burn
p4755
atp4756
a(I2
(lp4757
Vwithout bending
p4758
aVwithout bend
p4759
atp4760
a(I2
(lp4761
Vwithout attempting
p4762
aVwithout attempt
p4763
atp4764
a(I2
(lp4765
Vwithout allowing
p4766
aVwithout allow
p4767
atp4768
a(I2
(lp4769
Vwithin walking
p4770
aVwithin walk
p4771
atp4772
a(I2
(lp4773
Vwith waiting
p4774
aVwith wait
p4775
atp4776
a(I2
(lp4777
Vwith turning
p4778
aVwith turn
p4779
atp4780
a(I2
(lp4781
Vwith trying
p4782
aVwith try
p4783
atp4784
a(I2
(lp4785
Vwith succeeding
p4786
aVwith succeed
p4787
atp4788
a(I2
(lp4789
Vwith stealing
p4790
aVwith steal
p4791
atp4792
a(I2
(lp4793
Vwith sketching
p4794
aVwith sketch
p4795
atp4796
a(I2
(lp4797
Vwith sewing
p4798
aVwith sew
p4799
atp4800
a(I2
(lp4801
Vwith sending
p4802
aVwith send
p4803
atp4804
a(I2
(lp4805
Vwith selling
p4806
aVwith sell
p4807
atp4808
a(I2
(lp4809
Vwith sawing
p4810
aVwith saw
p4811
atp4812
a(I2
(lp4813
Vwith rolling
p4814
aVwith roll
p4815
atp4816
a(I2
(lp4817
Vwith passing
p4818
aVwith pass
p4819
atp4820
a(I2
(lp4821
Vwith listening
p4822
aVwith listen
p4823
atp4824
a(I2
(lp4825
Vwith knowing
p4826
aVwith know
p4827
atp4828
a(I2
(lp4829
Vwith glittering
p4830
aVwith glitter
p4831
atp4832
a(I2
(lp4833
Vwith finishing
p4834
aVwith finish
p4835
atp4836
a(I2
(lp4837
Vwith fastening
p4838
aVwith fasten
p4839
atp4840
a(I2
(lp4841
Vwith explaining
p4842
aVwith explain
p4843
atp4844
a(I2
(lp4845
Vwith expanding
p4846
aVwith expand
p4847
atp4848
a(I2
(lp4849
Vwith diminishing
p4850
aVwith diminish
p4851
atp4852
a(I2
(lp4853
Vwith differing
p4854
aVwith differ
p4855
atp4856
a(I2
(lp4857
Vwith defending
p4858
aVwith defend
p4859
atp4860
a(I2
(lp4861
Vwith decaying
p4862
aVwith decay
p4863
atp4864
a(I2
(lp4865
Vwith cracking
p4866
aVwith crack
p4867
atp4868
a(I2
(lp4869
Vwith containing
p4870
aVwith contain
p4871
atp4872
a(I2
(lp4873
Vwith connecting
p4874
aVwith connect
p4875
atp4876
a(I2
(lp4877
Vwith chewing
p4878
aVwith chew
p4879
atp4880
a(I2
(lp4881
Vwith buying
p4882
aVwith buy
p4883
atp4884
a(I2
(lp4885
Vwith blinding
p4886
aVwith blind
p4887
atp4888
a(I2
(lp4889
Vwith applying
p4890
aVwith apply
p4891
atp4892
a(I2
(lp4893
Vwhile throwing
p4894
aVwhile throw
p4895
atp4896
a(I2
(lp4897
Vwhile telling
p4898
aVwhile tell
p4899
atp4900
a(I2
(lp4901
Vwhile seeking
p4902
aVwhile seek
p4903
atp4904
a(I2
(lp4905
Vwhile recording
p4906
aVwhile record
p4907
atp4908
a(I2
(lp4909
Vwhile putting
p4910
aVwhile putt
p4911
atp4912
a(I2
(lp4913
Vwhile pressing
p4914
aVwhile press
p4915
atp4916
a(I2
(lp4917
Vwhile pouring
p4918
aVwhile pour
p4919
atp4920
a(I2
(lp4921
Vwhile passing
p4922
aVwhile pass
p4923
atp4924
a(I2
(lp4925
Vwhile offering
p4926
aVwhile offer
p4927
atp4928
a(I2
(lp4929
Vwhile jumping
p4930
aVwhile jump
p4931
atp4932
a(I2
(lp4933
Vwhile feeling
p4934
aVwhile feel
p4935
atp4936
a(I2
(lp4937
Vwhile feeding
p4938
aVwhile feed
p4939
atp4940
a(I2
(lp4941
Vwhile experimenting
p4942
aVwhile experiment
p4943
atp4944
a(I2
(lp4945
Vwhile earning
p4946
aVwhile earn
p4947
atp4948
a(I2
(lp4949
Vwhile dressing
p4950
aVwhile dress
p4951
atp4952
a(I2
(lp4953
Vwhile discussing
p4954
aVwhile discuss
p4955
atp4956
a(I2
(lp4957
Vwhile developing
p4958
aVwhile develop
p4959
atp4960
a(I2
(lp4961
Vwhile defending
p4962
aVwhile defend
p4963
atp4964
a(I2
(lp4965
Vwhile climbing
p4966
aVwhile climb
p4967
atp4968
a(I2
(lp4969
Vwhile caring
p4970
aVwhile car
p4971
atp4972
a(I2
(lp4973
Vwhile addressing
p4974
aVwhile address
p4975
atp4976
a(I2
(lp4977
Vwhile acting
p4978
aVwhile act
p4979
atp4980
a(I2
(lp4981
Vupon looking
p4982
aVupon look
p4983
atp4984
a(I2
(lp4985
Vupon developing
p4986
aVupon develop
p4987
atp4988
a(I2
(lp4989
Vup learning
p4990
aVup learn
p4991
atp4992
a(I2
(lp4993
Vunder varying
p4994
aVunder vary
p4995
atp4996
a(I2
(lp4997
Vunder questioning
p4998
aVunder question
p4999
atp5000
a(I2
(lp5001
Vtoward preventing
p5002
aVtoward prevent
p5003
atp5004
a(I2
(lp5005
Vtoward obtaining
p5006
aVtoward obtain
p5007
atp5008
a(I2
(lp5009
Vtoward meeting
p5010
aVtoward meet
p5011
atp5012
a(I2
(lp5013
Vtoward keeping
p5014
aVtoward keep
p5015
atp5016
a(I2
(lp5017
Vtoward forming
p5018
aVtoward form
p5019
atp5020
a(I2
(lp5021
Vtoward ending
p5022
aVtoward end
p5023
atp5024
a(I2
(lp5025
Vtoward developing
p5026
aVtoward develop
p5027
atp5028
a(I2
(lp5029
Vtoward building
p5030
aVtoward build
p5031
atp5032
a(I2
(lp5033
Vthrough thinking
p5034
aVthrough think
p5035
atp5036
a(I2
(lp5037
Vthrough talking
p5038
aVthrough talk
p5039
atp5040
a(I2
(lp5041
Vthrough selling
p5042
aVthrough sell
p5043
atp5044
a(I2
(lp5045
Vthrough kicking
p5046
aVthrough kick
p5047
atp5048
a(I2
(lp5049
Vthrough drinking
p5050
aVthrough drink
p5051
atp5052
a(I2
(lp5053
Vthrough developing
p5054
aVthrough develop
p5055
atp5056
a(I2
(lp5057
Vthrough chattering
p5058
aVthrough chatter
p5059
atp5060
a(I2
(lp5061
Vthough expecting
p5062
aVthough expect
p5063
atp5064
a(I2
(lp5065
Vthat complaining
p5066
aVthat complain
p5067
atp5068
a(I2
(lp5069
Vthan waiting
p5070
aVthan wait
p5071
atp5072
a(I2
(lp5073
Vthan visiting
p5074
aVthan visit
p5075
atp5076
a(I2
(lp5077
Vthan throwing
p5078
aVthan throw
p5079
atp5080
a(I2
(lp5081
Vthan spending
p5082
aVthan spend
p5083
atp5084
a(I2
(lp5085
Vthan riding
p5086
aVthan rid
p5087
atp5088
a(I2
(lp5089
Vthan linking
p5090
aVthan link
p5091
atp5092
a(I2
(lp5093
Vthan lifting
p5094
aVthan lift
p5095
atp5096
a(I2
(lp5097
Vthan finding
p5098
aVthan find
p5099
atp5100
a(I2
(lp5101
Vthan drinking
p5102
aVthan drink
p5103
atp5104
a(I2
(lp5105
Vthan discovering
p5106
aVthan discover
p5107
atp5108
a(I2
(lp5109
Vthan attempting
p5110
aVthan attempt
p5111
atp5112
a(I2
(lp5113
Vsince working
p5114
aVsince work
p5115
atp5116
a(I2
(lp5117
Vsince losing
p5118
aVsince los
p5119
atp5120
a(I2
(lp5121
Vsince fighting
p5122
aVsince fight
p5123
atp5124
a(I2
(lp5125
Vsince buying
p5126
aVsince buy
p5127
atp5128
a(I2
(lp5129
Vover working
p5130
aVover work
p5131
atp5132
a(I2
(lp5133
Vout gathering
p5134
aVout gather
p5135
atp5136
a(I2
(lp5137
Von wearing
p5138
aVon wear
p5139
atp5140
a(I2
(lp5141
Von waiting
p5142
aVon wait
p5143
atp5144
a(I2
(lp5145
Von treating
p5146
aVon treat
p5147
atp5148
a(I2
(lp5149
Von telling
p5150
aVon tell
p5151
atp5152
a(I2
(lp5153
Von supporting
p5154
aVon support
p5155
atp5156
a(I2
(lp5157
Von starting
p5158
aVon start
p5159
atp5160
a(I2
(lp5161
Von sending
p5162
aVon send
p5163
atp5164
a(I2
(lp5165
Von searching
p5166
aVon search
p5167
atp5168
a(I2
(lp5169
Von repairing
p5170
aVon repair
p5171
atp5172
a(I2
(lp5173
Von owning
p5174
aVon own
p5175
atp5176
a(I2
(lp5177
Von limping
p5178
aVon limp
p5179
atp5180
a(I2
(lp5181
Von launching
p5182
aVon launch
p5183
atp5184
a(I2
(lp5185
Von jumping
p5186
aVon jump
p5187
atp5188
a(I2
(lp5189
Von identifying
p5190
aVon identify
p5191
atp5192
a(I2
(lp5193
Von hanging
p5194
aVon hang
p5195
atp5196
a(I2
(lp5197
Von gleaming
p5198
aVon gleam
p5199
atp5200
a(I2
(lp5201
Von flying
p5202
aVon fly
p5203
atp5204
a(I2
(lp5205
Von floating
p5206
aVon float
p5207
atp5208
a(I2
(lp5209
Von falling
p5210
aVon fall
p5211
atp5212
a(I2
(lp5213
Von expanding
p5214
aVon expand
p5215
atp5216
a(I2
(lp5217
Von dressing
p5218
aVon dress
p5219
atp5220
a(I2
(lp5221
Von destroying
p5222
aVon destroy
p5223
atp5224
a(I2
(lp5225
Von descending
p5226
aVon descend
p5227
atp5228
a(I2
(lp5229
Von catching
p5230
aVon catch
p5231
atp5232
a(I2
(lp5233
Von breaking
p5234
aVon break
p5235
atp5236
a(I2
(lp5237
Von barking
p5238
aVon bark
p5239
atp5240
a(I2
(lp5241
Von attacking
p5242
aVon attack
p5243
atp5244
a(I2
(lp5245
Von applying
p5246
aVon apply
p5247
atp5248
a(I2
(lp5249
Von acting
p5250
aVon act
p5251
atp5252
a(I2
(lp5253
Vof whispering
p5254
aVof whisper
p5255
atp5256
a(I2
(lp5257
Vof weighing
p5258
aVof weigh
p5259
atp5260
a(I2
(lp5261
Vof unloading
p5262
aVof unload
p5263
atp5264
a(I2
(lp5265
Vof tossing
p5266
aVof toss
p5267
atp5268
a(I2
(lp5269
Vof tending
p5270
aVof tend
p5271
atp5272
a(I2
(lp5273
Vof swaying
p5274
aVof sway
p5275
atp5276
a(I2
(lp5277
Vof sustaining
p5278
aVof sustain
p5279
atp5280
a(I2
(lp5281
Vof surrounding
p5282
aVof surround
p5283
atp5284
a(I2
(lp5285
Vof suggesting
p5286
aVof suggest
p5287
atp5288
a(I2
(lp5289
Vof strengthening
p5290
aVof strengthen
p5291
atp5292
a(I2
(lp5293
Vof straightening
p5294
aVof straighten
p5295
atp5296
a(I2
(lp5297
Vof slanting
p5298
aVof slant
p5299
atp5300
a(I2
(lp5301
Vof shrinking
p5302
aVof shrink
p5303
atp5304
a(I2
(lp5305
Vof seeming
p5306
aVof seem
p5307
atp5308
a(I2
(lp5309
Vof revealing
p5310
aVof reveal
p5311
atp5312
a(I2
(lp5313
Vof prohibiting
p5314
aVof prohibit
p5315
atp5316
a(I2
(lp5317
Vof possessing
p5318
aVof possess
p5319
atp5320
a(I2
(lp5321
Vof mending
p5322
aVof mend
p5323
atp5324
a(I2
(lp5325
Vof limiting
p5326
aVof limit
p5327
atp5328
a(I2
(lp5329
Vof knocking
p5330
aVof knock
p5331
atp5332
a(I2
(lp5333
Vof inventing
p5334
aVof invent
p5335
atp5336
a(I2
(lp5337
Vof installing
p5338
aVof install
p5339
atp5340
a(I2
(lp5341
Vof inspecting
p5342
aVof inspect
p5343
atp5344
a(I2
(lp5345
Vof hissing
p5346
aVof hiss
p5347
atp5348
a(I2
(lp5349
Vof hauling
p5350
aVof haul
p5351
atp5352
a(I2
(lp5353
Vof hatching
p5354
aVof hatch
p5355
atp5356
a(I2
(lp5357
Vof fulfilling
p5358
aVof fulfill
p5359
atp5360
a(I2
(lp5361
Vof founding
p5362
aVof found
p5363
atp5364
a(I2
(lp5365
Vof flashing
p5366
aVof flash
p5367
atp5368
a(I2
(lp5369
Vof expecting
p5370
aVof expect
p5371
atp5372
a(I2
(lp5373
Vof enjoying
p5374
aVof enjoy
p5375
atp5376
a(I2
(lp5377
Vof considering
p5378
aVof consider
p5379
atp5380
a(I2
(lp5381
Vof confronting
p5382
aVof confront
p5383
atp5384
a(I2
(lp5385
Vof complaining
p5386
aVof complain
p5387
atp5388
a(I2
(lp5389
Vof claiming
p5390
aVof claim
p5391
atp5392
a(I2
(lp5393
Vof buzzing
p5394
aVof buzz
p5395
atp5396
a(I2
(lp5397
Vof blending
p5398
aVof blend
p5399
atp5400
a(I2
(lp5401
Vof bleeding
p5402
aVof bleed
p5403
atp5404
a(I2
(lp5405
Vof attaching
p5406
aVof attach
p5407
atp5408
a(I2
(lp5409
Vof assessing
p5410
aVof assess
p5411
atp5412
a(I2
(lp5413
Vof agreeing
p5414
aVof agree
p5415
atp5416
a(I2
(lp5417
Vlike waiting
p5418
aVlike wait
p5419
atp5420
a(I2
(lp5421
Vlike tying
p5422
aVlike ty
p5423
atp5424
a(I2
(lp5425
Vlike throwing
p5426
aVlike throw
p5427
atp5428
a(I2
(lp5429
Vlike thinking
p5430
aVlike think
p5431
atp5432
a(I2
(lp5433
Vlike stealing
p5434
aVlike steal
p5435
atp5436
a(I2
(lp5437
Vlike starting
p5438
aVlike start
p5439
atp5440
a(I2
(lp5441
Vlike shouting
p5442
aVlike shout
p5443
atp5444
a(I2
(lp5445
Vlike sailing
p5446
aVlike sail
p5447
atp5448
a(I2
(lp5449
Vlike punching
p5450
aVlike punch
p5451
atp5452
a(I2
(lp5453
Vlike pumping
p5454
aVlike pump
p5455
atp5456
a(I2
(lp5457
Vlike pulling
p5458
aVlike pull
p5459
atp5460
a(I2
(lp5461
Vlike pounding
p5462
aVlike pound
p5463
atp5464
a(I2
(lp5465
Vlike listening
p5466
aVlike listen
p5467
atp5468
a(I2
(lp5469
Vlike laughing
p5470
aVlike laugh
p5471
atp5472
a(I2
(lp5473
Vlike flowing
p5474
aVlike flow
p5475
atp5476
a(I2
(lp5477
Vlike drinking
p5478
aVlike drink
p5479
atp5480
a(I2
(lp5481
Vlike dressing
p5482
aVlike dress
p5483
atp5484
a(I2
(lp5485
Vlike drawing
p5486
aVlike draw
p5487
atp5488
a(I2
(lp5489
Vlike discussing
p5490
aVlike discuss
p5491
atp5492
a(I2
(lp5493
Vlike collecting
p5494
aVlike collect
p5495
atp5496
a(I2
(lp5497
Vlike changing
p5498
aVlike chang
p5499
atp5500
a(I2
(lp5501
Vlike answering
p5502
aVlike answer
p5503
atp5504
a(I2
(lp5505
Vinto trying
p5506
aVinto try
p5507
atp5508
a(I2
(lp5509
Vinto speaking
p5510
aVinto speak
p5511
atp5512
a(I2
(lp5513
Vinto paying
p5514
aVinto pay
p5515
atp5516
a(I2
(lp5517
Vinto meaning
p5518
aVinto mean
p5519
atp5520
a(I2
(lp5521
Vinto keeping
p5522
aVinto keep
p5523
atp5524
a(I2
(lp5525
Vinto helping
p5526
aVinto help
p5527
atp5528
a(I2
(lp5529
Vinto eating
p5530
aVinto eat
p5531
atp5532
a(I2
(lp5533
Vin weakening
p5534
aVin weaken
p5535
atp5536
a(I2
(lp5537
Vin tearing
p5538
aVin tear
p5539
atp5540
a(I2
(lp5541
Vin sustaining
p5542
aVin sustain
p5543
atp5544
a(I2
(lp5545
Vin stretching
p5546
aVin stretch
p5547
atp5548
a(I2
(lp5549
Vin strengthening
p5550
aVin strengthen
p5551
atp5552
a(I2
(lp5553
Vin sticking
p5554
aVin stick
p5555
atp5556
a(I2
(lp5557
Vin steering
p5558
aVin steer
p5559
atp5560
a(I2
(lp5561
Vin staying
p5562
aVin stay
p5563
atp5564
a(I2
(lp5565
Vin sewing
p5566
aVin sew
p5567
atp5568
a(I2
(lp5569
Vin rolling
p5570
aVin roll
p5571
atp5572
a(I2
(lp5573
Vin rewarding
p5574
aVin reward
p5575
atp5576
a(I2
(lp5577
Vin retaining
p5578
aVin retain
p5579
atp5580
a(I2
(lp5581
Vin relaxing
p5582
aVin relax
p5583
atp5584
a(I2
(lp5585
Vin recovering
p5586
aVin recover
p5587
atp5588
a(I2
(lp5589
Vin punishing
p5590
aVin punish
p5591
atp5592
a(I2
(lp5593
Vin punching
p5594
aVin punch
p5595
atp5596
a(I2
(lp5597
Vin possessing
p5598
aVin possess
p5599
atp5600
a(I2
(lp5601
Vin melting
p5602
aVin melt
p5603
atp5604
a(I2
(lp5605
Vin matching
p5606
aVin match
p5607
atp5608
a(I2
(lp5609
Vin limiting
p5610
aVin limit
p5611
atp5612
a(I2
(lp5613
Vin leading
p5614
aVin lead
p5615
atp5616
a(I2
(lp5617
Vin launching
p5618
aVin launch
p5619
atp5620
a(I2
(lp5621
Vin inventing
p5622
aVin invent
p5623
atp5624
a(I2
(lp5625
Vin installing
p5626
aVin install
p5627
atp5628
a(I2
(lp5629
Vin gasping
p5630
aVin gasp
p5631
atp5632
a(I2
(lp5633
Vin employing
p5634
aVin employ
p5635
atp5636
a(I2
(lp5637
Vin covering
p5638
aVin cover
p5639
atp5640
a(I2
(lp5641
Vin copying
p5642
aVin copy
p5643
atp5644
a(I2
(lp5645
Vin climbing
p5646
aVin climb
p5647
atp5648
a(I2
(lp5649
Vin breeding
p5650
aVin breed
p5651
atp5652
a(I2
(lp5653
Vin blowing
p5654
aVin blow
p5655
atp5656
a(I2
(lp5657
Vin adopting
p5658
aVin adopt
p5659
atp5660
a(I2
(lp5661
Vif wanting
p5662
aVif want
p5663
atp5664
a(I2
(lp5665
Vif looking
p5666
aVif look
p5667
atp5668
a(I2
(lp5669
Vif growing
p5670
aVif grow
p5671
atp5672
a(I2
(lp5673
Vif changing
p5674
aVif chang
p5675
atp5676
a(I2
(lp5677
Vif answering
p5678
aVif answer
p5679
atp5680
a(I2
(lp5681
Vfrom treating
p5682
aVfrom treat
p5683
atp5684
a(I2
(lp5685
Vfrom talking
p5686
aVfrom talk
p5687
atp5688
a(I2
(lp5689
Vfrom surrounding
p5690
aVfrom surround
p5691
atp5692
a(I2
(lp5693
Vfrom succeeding
p5694
aVfrom succeed
p5695
atp5696
a(I2
(lp5697
Vfrom standing
p5698
aVfrom stand
p5699
atp5700
a(I2
(lp5701
Vfrom soaking
p5702
aVfrom soak
p5703
atp5704
a(I2
(lp5705
Vfrom sliding
p5706
aVfrom slid
p5707
atp5708
a(I2
(lp5709
Vfrom sinking
p5710
aVfrom sink
p5711
atp5712
a(I2
(lp5713
Vfrom shooting
p5714
aVfrom shoot
p5715
atp5716
a(I2
(lp5717
Vfrom seeking
p5718
aVfrom seek
p5719
atp5720
a(I2
(lp5721
Vfrom rushing
p5722
aVfrom rush
p5723
atp5724
a(I2
(lp5725
Vfrom rolling
p5726
aVfrom roll
p5727
atp5728
a(I2
(lp5729
Vfrom returning
p5730
aVfrom return
p5731
atp5732
a(I2
(lp5733
Vfrom responding
p5734
aVfrom respond
p5735
atp5736
a(I2
(lp5737
Vfrom pouring
p5738
aVfrom pour
p5739
atp5740
a(I2
(lp5741
Vfrom peering
p5742
aVfrom peer
p5743
atp5744
a(I2
(lp5745
Vfrom meeting
p5746
aVfrom meet
p5747
atp5748
a(I2
(lp5749
Vfrom marrying
p5750
aVfrom marry
p5751
atp5752
a(I2
(lp5753
Vfrom locking
p5754
aVfrom lock
p5755
atp5756
a(I2
(lp5757
Vfrom joining
p5758
aVfrom join
p5759
atp5760
a(I2
(lp5761
Vfrom investing
p5762
aVfrom invest
p5763
atp5764
a(I2
(lp5765
Vfrom hurting
p5766
aVfrom hurt
p5767
atp5768
a(I2
(lp5769
Vfrom gathering
p5770
aVfrom gather
p5771
atp5772
a(I2
(lp5773
Vfrom functioning
p5774
aVfrom function
p5775
atp5776
a(I2
(lp5777
Vfrom fixing
p5778
aVfrom fix
p5779
atp5780
a(I2
(lp5781
Vfrom finishing
p5782
aVfrom finish
p5783
atp5784
a(I2
(lp5785
Vfrom finding
p5786
aVfrom find
p5787
atp5788
a(I2
(lp5789
Vfrom expanding
p5790
aVfrom expand
p5791
atp5792
a(I2
(lp5793
Vfrom establishing
p5794
aVfrom establish
p5795
atp5796
a(I2
(lp5797
Vfrom earning
p5798
aVfrom earn
p5799
atp5800
a(I2
(lp5801
Vfrom crying
p5802
aVfrom cry
p5803
atp5804
a(I2
(lp5805
Vfrom crawling
p5806
aVfrom crawl
p5807
atp5808
a(I2
(lp5809
Vfrom counting
p5810
aVfrom count
p5811
atp5812
a(I2
(lp5813
Vfrom climbing
p5814
aVfrom climb
p5815
atp5816
a(I2
(lp5817
Vfrom claiming
p5818
aVfrom claim
p5819
atp5820
a(I2
(lp5821
Vfrom boiling
p5822
aVfrom boil
p5823
atp5824
a(I2
(lp5825
Vfrom bending
p5826
aVfrom bend
p5827
atp5828
a(I2
(lp5829
Vfrom asking
p5830
aVfrom ask
p5831
atp5832
a(I2
(lp5833
Vfrom accounting
p5834
aVfrom account
p5835
atp5836
a(I2
(lp5837
Vfor watching
p5838
aVfor watch
p5839
atp5840
a(I2
(lp5841
Vfor wandering
p5842
aVfor wander
p5843
atp5844
a(I2
(lp5845
Vfor suggesting
p5846
aVfor suggest
p5847
atp5848
a(I2
(lp5849
Vfor suffering
p5850
aVfor suffer
p5851
atp5852
a(I2
(lp5853
Vfor straightening
p5854
aVfor straighten
p5855
atp5856
a(I2
(lp5857
Vfor stamping
p5858
aVfor stamp
p5859
atp5860
a(I2
(lp5861
Vfor sketching
p5862
aVfor sketch
p5863
atp5864
a(I2
(lp5865
Vfor seeking
p5866
aVfor seek
p5867
atp5868
a(I2
(lp5869
Vfor screening
p5870
aVfor screen
p5871
atp5872
a(I2
(lp5873
Vfor satisfying
p5874
aVfor satisfy
p5875
atp5876
a(I2
(lp5877
Vfor roasting
p5878
aVfor roast
p5879
atp5880
a(I2
(lp5881
Vfor roaming
p5882
aVfor roam
p5883
atp5884
a(I2
(lp5885
Vfor representing
p5886
aVfor represent
p5887
atp5888
a(I2
(lp5889
Vfor neighboring
p5890
aVfor neighbor
p5891
atp5892
a(I2
(lp5893
Vfor multiplying
p5894
aVfor multiply
p5895
atp5896
a(I2
(lp5897
Vfor marrying
p5898
aVfor marry
p5899
atp5900
a(I2
(lp5901
Vfor launching
p5902
aVfor launch
p5903
atp5904
a(I2
(lp5905
Vfor laughing
p5906
aVfor laugh
p5907
atp5908
a(I2
(lp5909
Vfor interviewing
p5910
aVfor interview
p5911
atp5912
a(I2
(lp5913
Vfor interrupting
p5914
aVfor interrupt
p5915
atp5916
a(I2
(lp5917
Vfor interpreting
p5918
aVfor interpret
p5919
atp5920
a(I2
(lp5921
Vfor interacting
p5922
aVfor interact
p5923
atp5924
a(I2
(lp5925
Vfor installing
p5926
aVfor install
p5927
atp5928
a(I2
(lp5929
Vfor insisting
p5930
aVfor insist
p5931
atp5932
a(I2
(lp5933
Vfor hurting
p5934
aVfor hurt
p5935
atp5936
a(I2
(lp5937
Vfor hearing
p5938
aVfor hear
p5939
atp5940
a(I2
(lp5941
Vfor greeting
p5942
aVfor greet
p5943
atp5944
a(I2
(lp5945
Vfor fulfilling
p5946
aVfor fulfill
p5947
atp5948
a(I2
(lp5949
Vfor explaining
p5950
aVfor explain
p5951
atp5952
a(I2
(lp5953
Vfor employing
p5954
aVfor employ
p5955
atp5956
a(I2
(lp5957
Vfor dumping
p5958
aVfor dump
p5959
atp5960
a(I2
(lp5961
Vfor drafting
p5962
aVfor draft
p5963
atp5964
a(I2
(lp5965
Vfor disturbing
p5966
aVfor disturb
p5967
atp5968
a(I2
(lp5969
Vfor discussing
p5970
aVfor discuss
p5971
atp5972
a(I2
(lp5973
Vfor dining
p5974
aVfor din
p5975
atp5976
a(I2
(lp5977
Vfor defending
p5978
aVfor defend
p5979
atp5980
a(I2
(lp5981
Vfor crying
p5982
aVfor cry
p5983
atp5984
a(I2
(lp5985
Vfor cracking
p5986
aVfor crack
p5987
atp5988
a(I2
(lp5989
Vfor containing
p5990
aVfor contain
p5991
atp5992
a(I2
(lp5993
Vfor complaining
p5994
aVfor complain
p5995
atp5996
a(I2
(lp5997
Vfor clinging
p5998
aVfor cl
p5999
atp6000
a(I2
(lp6001
Vfor binding
p6002
aVfor bind
p6003
atp6004
a(I2
(lp6005
Vfor avoiding
p6006
aVfor avoid
p6007
atp6008
a(I2
(lp6009
Vfor accompanying
p6010
aVfor accompany
p6011
atp6012
a(I2
(lp6013
Vduring visiting
p6014
aVduring visit
p6015
atp6016
a(I2
(lp6017
Vduring starting
p6018
aVduring start
p6019
atp6020
a(I2
(lp6021
Vduring reading
p6022
aVduring read
p6023
atp6024
a(I2
(lp6025
Vduring falling
p6026
aVduring fall
p6027
atp6028
a(I2
(lp6029
Vdespite being
p6030
aVdespite be
p6031
atp6032
a(I2
(lp6033
Vby yelling
p6034
aVby yell
p6035
atp6036
a(I2
(lp6037
Vby whispering
p6038
aVby whisper
p6039
atp6040
a(I2
(lp6041
Vby wandering
p6042
aVby wander
p6043
atp6044
a(I2
(lp6045
Vby tracking
p6046
aVby track
p6047
atp6048
a(I2
(lp6049
Vby tossing
p6050
aVby toss
p6051
atp6052
a(I2
(lp6053
Vby tending
p6054
aVby tend
p6055
atp6056
a(I2
(lp6057
Vby strengthening
p6058
aVby strengthen
p6059
atp6060
a(I2
(lp6061
Vby straining
p6062
aVby strain
p6063
atp6064
a(I2
(lp6065
Vby stealing
p6066
aVby steal
p6067
atp6068
a(I2
(lp6069
Vby staring
p6070
aVby star
p6071
atp6072
a(I2
(lp6073
Vby spraying
p6074
aVby spray
p6075
atp6076
a(I2
(lp6077
Vby sketching
p6078
aVby sketch
p6079
atp6080
a(I2
(lp6081
Vby sharpening
p6082
aVby sharpen
p6083
atp6084
a(I2
(lp6085
Vby sewing
p6086
aVby sew
p6087
atp6088
a(I2
(lp6089
Vby searching
p6090
aVby search
p6091
atp6092
a(I2
(lp6093
Vby satisfying
p6094
aVby satisfy
p6095
atp6096
a(I2
(lp6097
Vby rushing
p6098
aVby rush
p6099
atp6100
a(I2
(lp6101
Vby retaining
p6102
aVby retain
p6103
atp6104
a(I2
(lp6105
Vby relaxing
p6106
aVby relax
p6107
atp6108
a(I2
(lp6109
Vby regarding
p6110
aVby regard
p6111
atp6112
a(I2
(lp6113
Vby reaching
p6114
aVby reach
p6115
atp6116
a(I2
(lp6117
Vby picking
p6118
aVby pick
p6119
atp6120
a(I2
(lp6121
Vby owning
p6122
aVby own
p6123
atp6124
a(I2
(lp6125
Vby orbiting
p6126
aVby orbit
p6127
atp6128
a(I2
(lp6129
Vby obtaining
p6130
aVby obtain
p6131
atp6132
a(I2
(lp6133
Vby mounting
p6134
aVby mount
p6135
atp6136
a(I2
(lp6137
Vby modifying
p6138
aVby modify
p6139
atp6140
a(I2
(lp6141
Vby meeting
p6142
aVby meet
p6143
atp6144
a(I2
(lp6145
Vby licking
p6146
aVby lick
p6147
atp6148
a(I2
(lp6149
Vby laughing
p6150
aVby laugh
p6151
atp6152
a(I2
(lp6153
Vby labeling
p6154
aVby label
p6155
atp6156
a(I2
(lp6157
Vby investing
p6158
aVby invest
p6159
atp6160
a(I2
(lp6161
Vby inventing
p6162
aVby invent
p6163
atp6164
a(I2
(lp6165
Vby interpreting
p6166
aVby interpret
p6167
atp6168
a(I2
(lp6169
Vby installing
p6170
aVby install
p6171
atp6172
a(I2
(lp6173
Vby herding
p6174
aVby herd
p6175
atp6176
a(I2
(lp6177
Vby harvesting
p6178
aVby harvest
p6179
atp6180
a(I2
(lp6181
Vby hammering
p6182
aVby hammer
p6183
atp6184
a(I2
(lp6185
Vby founding
p6186
aVby found
p6187
atp6188
a(I2
(lp6189
Vby fastening
p6190
aVby fasten
p6191
atp6192
a(I2
(lp6193
Vby existing
p6194
aVby exist
p6195
atp6196
a(I2
(lp6197
Vby earning
p6198
aVby earn
p6199
atp6200
a(I2
(lp6201
Vby drowning
p6202
aVby drown
p6203
atp6204
a(I2
(lp6205
Vby crushing
p6206
aVby crush
p6207
atp6208
a(I2
(lp6209
Vby crawling
p6210
aVby crawl
p6211
atp6212
a(I2
(lp6213
Vby conducting
p6214
aVby conduct
p6215
atp6216
a(I2
(lp6217
Vby coding
p6218
aVby cod
p6219
atp6220
a(I2
(lp6221
Vby claiming
p6222
aVby claim
p6223
atp6224
a(I2
(lp6225
Vby casting
p6226
aVby cast
p6227
atp6228
a(I2
(lp6229
Vby bumping
p6230
aVby bump
p6231
atp6232
a(I2
(lp6233
Vby branching
p6234
aVby branch
p6235
atp6236
a(I2
(lp6237
Vby binding
p6238
aVby bind
p6239
atp6240
a(I2
(lp6241
Vby attracting
p6242
aVby attract
p6243
atp6244
a(I2
(lp6245
Vby assisting
p6246
aVby assist
p6247
atp6248
a(I2
(lp6249
Vby assigning
p6250
aVby assign
p6251
atp6252
a(I2
(lp6253
Vby assessing
p6254
aVby assess
p6255
atp6256
a(I2
(lp6257
Vby appearing
p6258
aVby appear
p6259
atp6260
a(I2
(lp6261
Vby agreeing
p6262
aVby agree
p6263
atp6264
a(I2
(lp6265
Vby affecting
p6266
aVby affect
p6267
atp6268
a(I2
(lp6269
Vbeyond bearing
p6270
aVbeyond bear
p6271
atp6272
a(I2
(lp6273
Vbetween wishing
p6274
aVbetween wish
p6275
atp6276
a(I2
(lp6277
Vbetween reading
p6278
aVbetween read
p6279
atp6280
a(I2
(lp6281
Vbetween learning
p6282
aVbetween learn
p6283
atp6284
a(I2
(lp6285
Vbetween eating
p6286
aVbetween eat
p6287
atp6288
a(I2
(lp6289
Vbetween belonging
p6290
aVbetween belong
p6291
atp6292
a(I2
(lp6293
Vbetween accepting
p6294
aVbetween accept
p6295
atp6296
a(I2
(lp6297
Vbesides talking
p6298
aVbesides talk
p6299
atp6300
a(I2
(lp6301
Vbesides satisfying
p6302
aVbesides satisfy
p6303
atp6304
a(I2
(lp6305
Vbesides looking
p6306
aVbesides look
p6307
atp6308
a(I2
(lp6309
Vbesides helping
p6310
aVbesides help
p6311
atp6312
a(I2
(lp6313
Vbeside rolling
p6314
aVbeside roll
p6315
atp6316
a(I2
(lp6317
Vbefore studying
p6318
aVbefore study
p6319
atp6320
a(I2
(lp6321
Vbefore skiing
p6322
aVbefore ski
p6323
atp6324
a(I2
(lp6325
Vbefore shifting
p6326
aVbefore shift
p6327
atp6328
a(I2
(lp6329
Vbefore sending
p6330
aVbefore send
p6331
atp6332
a(I2
(lp6333
Vbefore recording
p6334
aVbefore record
p6335
atp6336
a(I2
(lp6337
Vbefore pressing
p6338
aVbefore press
p6339
atp6340
a(I2
(lp6341
Vbefore picking
p6342
aVbefore pick
p6343
atp6344
a(I2
(lp6345
Vbefore performing
p6346
aVbefore perform
p6347
atp6348
a(I2
(lp6349
Vbefore passing
p6350
aVbefore pass
p6351
atp6352
a(I2
(lp6353
Vbefore marrying
p6354
aVbefore marry
p6355
atp6356
a(I2
(lp6357
Vbefore leaping
p6358
aVbefore leap
p6359
atp6360
a(I2
(lp6361
Vbefore killing
p6362
aVbefore kill
p6363
atp6364
a(I2
(lp6365
Vbefore drinking
p6366
aVbefore drink
p6367
atp6368
a(I2
(lp6369
Vbefore considering
p6370
aVbefore consider
p6371
atp6372
a(I2
(lp6373
Vbefore connecting
p6374
aVbefore connect
p6375
atp6376
a(I2
(lp6377
Vbefore building
p6378
aVbefore build
p6379
atp6380
a(I2
(lp6381
Vbefore attaching
p6382
aVbefore attach
p6383
atp6384
a(I2
(lp6385
Vbefore asking
p6386
aVbefore ask
p6387
atp6388
a(I2
(lp6389
Vbefore appearing
p6390
aVbefore appear
p6391
atp6392
a(I2
(lp6393
Vbefore adding
p6394
aVbefore add
p6395
atp6396
a(I2
(lp6397
Vbecause growing
p6398
aVbecause grow
p6399
atp6400
a(I2
(lp6401
Vbecause farming
p6402
aVbecause farm
p6403
atp6404
a(I2
(lp6405
Vat understanding
p6406
aVat understand
p6407
atp6408
a(I2
(lp6409
Vat throwing
p6410
aVat throw
p6411
atp6412
a(I2
(lp6413
Vat spreading
p6414
aVat spread
p6415
atp6416
a(I2
(lp6417
Vat spelling
p6418
aVat spell
p6419
atp6420
a(I2
(lp6421
Vat speaking
p6422
aVat speak
p6423
atp6424
a(I2
(lp6425
Vat shooting
p6426
aVat shoot
p6427
atp6428
a(I2
(lp6429
Vat selling
p6430
aVat sell
p6431
atp6432
a(I2
(lp6433
Vat putting
p6434
aVat putt
p6435
atp6436
a(I2
(lp6437
Vat picking
p6438
aVat pick
p6439
atp6440
a(I2
(lp6441
Vat milking
p6442
aVat milk
p6443
atp6444
a(I2
(lp6445
Vat looking
p6446
aVat look
p6447
atp6448
a(I2
(lp6449
Vat listening
p6450
aVat listen
p6451
atp6452
a(I2
(lp6453
Vat identifying
p6454
aVat identify
p6455
atp6456
a(I2
(lp6457
Vat fixing
p6458
aVat fix
p6459
atp6460
a(I2
(lp6461
Vat fighting
p6462
aVat fight
p6463
atp6464
a(I2
(lp6465
Vat explaining
p6466
aVat explain
p6467
atp6468
a(I2
(lp6469
Vat establishing
p6470
aVat establish
p6471
atp6472
a(I2
(lp6473
Vat drawing
p6474
aVat draw
p6475
atp6476
a(I2
(lp6477
Vat cleaning
p6478
aVat clean
p6479
atp6480
a(I2
(lp6481
Vat classifying
p6482
aVat classify
p6483
atp6484
a(I2
(lp6485
Vat bowling
p6486
aVat bowl
p6487
atp6488
a(I2
(lp6489
Vas warning
p6490
aVas warn
p6491
atp6492
a(I2
(lp6493
Vas throwing
p6494
aVas throw
p6495
atp6496
a(I2
(lp6497
Vas sliding
p6498
aVas slid
p6499
atp6500
a(I2
(lp6501
Vas rewarding
p6502
aVas reward
p6503
atp6504
a(I2
(lp6505
Vas pouring
p6506
aVas pour
p6507
atp6508
a(I2
(lp6509
Vas posting
p6510
aVas post
p6511
atp6512
a(I2
(lp6513
Vas marrying
p6514
aVas marry
p6515
atp6516
a(I2
(lp6517
Vas limiting
p6518
aVas limit
p6519
atp6520
a(I2
(lp6521
Vas learning
p6522
aVas learn
p6523
atp6524
a(I2
(lp6525
Vas killing
p6526
aVas kill
p6527
atp6528
a(I2
(lp6529
Vas jumping
p6530
aVas jump
p6531
atp6532
a(I2
(lp6533
Vas floating
p6534
aVas float
p6535
atp6536
a(I2
(lp6537
Vas finding
p6538
aVas find
p6539
atp6540
a(I2
(lp6541
Vas ending
p6542
aVas end
p6543
atp6544
a(I2
(lp6545
Vas changing
p6546
aVas chang
p6547
atp6548
a(I2
(lp6549
Vas calling
p6550
aVas call
p6551
atp6552
a(I2
(lp6553
Vas buying
p6554
aVas buy
p6555
atp6556
a(I2
(lp6557
Vas asking
p6558
aVas ask
p6559
atp6560
a(I2
(lp6561
Vas appealing
p6562
aVas appeal
p6563
atp6564
a(I2
(lp6565
Vas adjusting
p6566
aVas adjust
p6567
atp6568
a(I2
(lp6569
Vas adding
p6570
aVas add
p6571
atp6572
a(I2
(lp6573
Vas acting
p6574
aVas act
p6575
atp6576
a(I2
(lp6577
Varound watching
p6578
aVaround watch
p6579
atp6580
a(I2
(lp6581
Varound understanding
p6582
aVaround understand
p6583
atp6584
a(I2
(lp6585
Varound telling
p6586
aVaround tell
p6587
atp6588
a(I2
(lp6589
Varound showing
p6590
aVaround show
p6591
atp6592
a(I2
(lp6593
Varound rolling
p6594
aVaround roll
p6595
atp6596
a(I2
(lp6597
Varound putting
p6598
aVaround putt
p6599
atp6600
a(I2
(lp6601
Varound playing
p6602
aVaround play
p6603
atp6604
a(I2
(lp6605
Varound kicking
p6606
aVaround kick
p6607
atp6608
a(I2
(lp6609
Vamong neighboring
p6610
aVamong neighbor
p6611
atp6612
a(I2
(lp6613
Valthough according
p6614
aValthough accord
p6615
atp6616
a(I2
(lp6617
Valong minding
p6618
aValong mind
p6619
atp6620
a(I2
(lp6621
Valong doing
p6622
aValong do
p6623
atp6624
a(I2
(lp6625
Vago playing
p6626
aVago play
p6627
atp6628
a(I2
(lp6629
Vagainst killing
p6630
aVagainst kill
p6631
atp6632
a(I2
(lp6633
Vagainst being
p6634
aVagainst be
p6635
atp6636
a(I2
(lp6637
Vafter visiting
p6638
aVafter visit
p6639
atp6640
a(I2
(lp6641
Vafter undergoing
p6642
aVafter undergo
p6643
atp6644
a(I2
(lp6645
Vafter tying
p6646
aVafter ty
p6647
atp6648
a(I2
(lp6649
Vafter tossing
p6650
aVafter toss
p6651
atp6652
a(I2
(lp6653
Vafter tending
p6654
aVafter tend
p6655
atp6656
a(I2
(lp6657
Vafter subtracting
p6658
aVafter subtract
p6659
atp6660
a(I2
(lp6661
Vafter spraying
p6662
aVafter spray
p6663
atp6664
a(I2
(lp6665
Vafter sleeping
p6666
aVafter sleep
p6667
atp6668
a(I2
(lp6669
Vafter selling
p6670
aVafter sell
p6671
atp6672
a(I2
(lp6673
Vafter scraping
p6674
aVafter scrap
p6675
atp6676
a(I2
(lp6677
Vafter riding
p6678
aVafter rid
p6679
atp6680
a(I2
(lp6681
Vafter recording
p6682
aVafter record
p6683
atp6684
a(I2
(lp6685
Vafter punching
p6686
aVafter punch
p6687
atp6688
a(I2
(lp6689
Vafter presenting
p6690
aVafter present
p6691
atp6692
a(I2
(lp6693
Vafter paying
p6694
aVafter pay
p6695
atp6696
a(I2
(lp6697
Vafter mounting
p6698
aVafter mount
p6699
atp6700
a(I2
(lp6701
Vafter mailing
p6702
aVafter mail
p6703
atp6704
a(I2
(lp6705
Vafter knowing
p6706
aVafter know
p6707
atp6708
a(I2
(lp6709
Vafter joining
p6710
aVafter join
p6711
atp6712
a(I2
(lp6713
Vafter greeting
p6714
aVafter greet
p6715
atp6716
a(I2
(lp6717
Vafter flying
p6718
aVafter fly
p6719
atp6720
a(I2
(lp6721
Vafter finding
p6722
aVafter find
p6723
atp6724
a(I2
(lp6725
Vafter failing
p6726
aVafter fail
p6727
atp6728
a(I2
(lp6729
Vafter entering
p6730
aVafter enter
p6731
atp6732
a(I2
(lp6733
Vafter drawing
p6734
aVafter draw
p6735
atp6736
a(I2
(lp6737
Vafter discovering
p6738
aVafter discover
p6739
atp6740
a(I2
(lp6741
Vafter crushing
p6742
aVafter crush
p6743
atp6744
a(I2
(lp6745
Vafter conquering
p6746
aVafter conquer
p6747
atp6748
a(I2
(lp6749
Vafter conducting
p6750
aVafter conduct
p6751
atp6752
a(I2
(lp6753
Vafter catching
p6754
aVafter catch
p6755
atp6756
a(I2
(lp6757
Vafter blowing
p6758
aVafter blow
p6759
atp6760
a(I2
(lp6761
Vafter banking
p6762
aVafter bank
p6763
atp6764
a(I2
(lp6765
Vafter appearing
p6766
aVafter appear
p6767
atp6768
a(I2
(lp6769
Vafter adding
p6770
aVafter add
p6771
atp6772
a(I2
(lp6773
Vabout understanding
p6774
aVabout understand
p6775
atp6776
a(I2
(lp6777
Vabout training
p6778
aVabout train
p6779
atp6780
a(I2
(lp6781
Vabout speaking
p6782
aVabout speak
p6783
atp6784
a(I2
(lp6785
Vabout sending
p6786
aVabout send
p6787
atp6788
a(I2
(lp6789
Vabout searching
p6790
aVabout search
p6791
atp6792
a(I2
(lp6793
Vabout offering
p6794
aVabout offer
p6795
atp6796
a(I2
(lp6797
Vabout meaning
p6798
aVabout mean
p6799
atp6800
a(I2
(lp6801
Vabout maintaining
p6802
aVabout maintain
p6803
atp6804
a(I2
(lp6805
Vabout laying
p6806
aVabout lay
p6807
atp6808
a(I2
(lp6809
Vabout knowing
p6810
aVabout know
p6811
atp6812
a(I2
(lp6813
Vabout forming
p6814
aVabout form
p6815
atp6816
a(I2
(lp6817
Vabout feeding
p6818
aVabout feed
p6819
atp6820
a(I2
(lp6821
Vabout explaining
p6822
aVabout explain
p6823
atp6824
a(I2
(lp6825
Vabout entering
p6826
aVabout enter
p6827
atp6828
a(I2
(lp6829
Vabout discussing
p6830
aVabout discuss
p6831
atp6832
a(I2
(lp6833
Vabout cleaning
p6834
aVabout clean
p6835
atp6836
a(I2
(lp6837
Vabout checking
p6838
aVabout check
p6839
atp6840
a(I2
(lp6841
Vabout caring
p6842
aVabout car
p6843
atp6844
a(I2
(lp6845
Vabout borrowing
p6846
aVabout borrow
p6847
atp6848
a(I2
(lp6849
Vabout approaching
p6850
aVabout approach
p6851
atp6852
a(I2
(lp6853
Vabout applying
p6854
aVabout apply
p6855
atp6856
a(I2
(lp6857
Vabout allowing
p6858
aVabout allow
p6859
atp6860
a(I1
(lp6861
Vwithout yielding
p6862
aVwithout yield
p6863
atp6864
a(I1
(lp6865
Vwithout wishing
p6866
aVwithout wish
p6867
atp6868
a(I1
(lp6869
Vwithout watching
p6870
aVwithout watch
p6871
atp6872
a(I1
(lp6873
Vwithout wailing
p6874
aVwithout wail
p6875
atp6876
a(I1
(lp6877
Vwithout uniting
p6878
aVwithout unit
p6879
atp6880
a(I1
(lp6881
Vwithout undergoing
p6882
aVwithout undergo
p6883
atp6884
a(I1
(lp6885
Vwithout twisting
p6886
aVwithout twist
p6887
atp6888
a(I1
(lp6889
Vwithout tearing
p6890
aVwithout tear
p6891
atp6892
a(I1
(lp6893
Vwithout sustaining
p6894
aVwithout sustain
p6895
atp6896
a(I1
(lp6897
Vwithout stretching
p6898
aVwithout stretch
p6899
atp6900
a(I1
(lp6901
Vwithout starting
p6902
aVwithout start
p6903
atp6904
a(I1
(lp6905
Vwithout splashing
p6906
aVwithout splash
p6907
atp6908
a(I1
(lp6909
Vwithout sliding
p6910
aVwithout slid
p6911
atp6912
a(I1
(lp6913
Vwithout scratching
p6914
aVwithout scratch
p6915
atp6916
a(I1
(lp6917
Vwithout scattering
p6918
aVwithout scatter
p6919
atp6920
a(I1
(lp6921
Vwithout returning
p6922
aVwithout return
p6923
atp6924
a(I1
(lp6925
Vwithout resulting
p6926
aVwithout result
p6927
atp6928
a(I1
(lp6929
Vwithout reporting
p6930
aVwithout report
p6931
atp6932
a(I1
(lp6933
Vwithout repeating
p6934
aVwithout repeat
p6935
atp6936
a(I1
(lp6937
Vwithout reminding
p6938
aVwithout remind
p6939
atp6940
a(I1
(lp6941
Vwithout remembering
p6942
aVwithout remember
p6943
atp6944
a(I1
(lp6945
Vwithout reflecting
p6946
aVwithout reflect
p6947
atp6948
a(I1
(lp6949
Vwithout pushing
p6950
aVwithout push
p6951
atp6952
a(I1
(lp6953
Vwithout puffing
p6954
aVwithout puff
p6955
atp6956
a(I1
(lp6957
Vwithout pressing
p6958
aVwithout press
p6959
atp6960
a(I1
(lp6961
Vwithout obtaining
p6962
aVwithout obtain
p6963
atp6964
a(I1
(lp6965
Vwithout lowering
p6966
aVwithout lower
p6967
atp6968
a(I1
(lp6969
Vwithout leaning
p6970
aVwithout lean
p6971
atp6972
a(I1
(lp6973
Vwithout leaking
p6974
aVwithout leak
p6975
atp6976
a(I1
(lp6977
Vwithout laughing
p6978
aVwithout laugh
p6979
atp6980
a(I1
(lp6981
Vwithout jumping
p6982
aVwithout jump
p6983
atp6984
a(I1
(lp6985
Vwithout investing
p6986
aVwithout invest
p6987
atp6988
a(I1
(lp6989
Vwithout interacting
p6990
aVwithout interact
p6991
atp6992
a(I1
(lp6993
Vwithout inserting
p6994
aVwithout insert
p6995
atp6996
a(I1
(lp6997
Vwithout informing
p6998
aVwithout inform
p6999
atp7000
a(I1
(lp7001
Vwithout growing
p7002
aVwithout grow
p7003
atp7004
a(I1
(lp7005
Vwithout finishing
p7006
aVwithout finish
p7007
atp7008
a(I1
(lp7009
Vwithout filling
p7010
aVwithout fill
p7011
atp7012
a(I1
(lp7013
Vwithout exceeding
p7014
aVwithout exceed
p7015
atp7016
a(I1
(lp7017
Vwithout establishing
p7018
aVwithout establish
p7019
atp7020
a(I1
(lp7021
Vwithout dreaming
p7022
aVwithout dream
p7023
atp7024
a(I1
(lp7025
Vwithout discussing
p7026
aVwithout discuss
p7027
atp7028
a(I1
(lp7029
Vwithout discovering
p7030
aVwithout discover
p7031
atp7032
a(I1
(lp7033
Vwithout disappearing
p7034
aVwithout disappear
p7035
atp7036
a(I1
(lp7037
Vwithout demanding
p7038
aVwithout demand
p7039
atp7040
a(I1
(lp7041
Vwithout crushing
p7042
aVwithout crush
p7043
atp7044
a(I1
(lp7045
Vwithout covering
p7046
aVwithout cover
p7047
atp7048
a(I1
(lp7049
Vwithout constructing
p7050
aVwithout construct
p7051
atp7052
a(I1
(lp7053
Vwithout claiming
p7054
aVwithout claim
p7055
atp7056
a(I1
(lp7057
Vwithout carrying
p7058
aVwithout carry
p7059
atp7060
a(I1
(lp7061
Vwithout building
p7062
aVwithout build
p7063
atp7064
a(I1
(lp7065
Vwithout borrowing
p7066
aVwithout borrow
p7067
atp7068
a(I1
(lp7069
Vwithout blowing
p7070
aVwithout blow
p7071
atp7072
a(I1
(lp7073
Vwithout biting
p7074
aVwithout bit
p7075
atp7076
a(I1
(lp7077
Vwithout applying
p7078
aVwithout apply
p7079
atp7080
a(I1
(lp7081
Vwithout appearing
p7082
aVwithout appear
p7083
atp7084
a(I1
(lp7085
Vwithout accompanying
p7086
aVwithout accompany
p7087
atp7088
a(I1
(lp7089
Vwithin shouting
p7090
aVwithin shout
p7091
atp7092
a(I1
(lp7093
Vwith widening
p7094
aVwith widen
p7095
atp7096
a(I1
(lp7097
Vwith wearing
p7098
aVwith wear
p7099
atp7100
a(I1
(lp7101
Vwith wanting
p7102
aVwith want
p7103
atp7104
a(I1
(lp7105
Vwith walking
p7106
aVwith walk
p7107
atp7108
a(I1
(lp7109
Vwith visiting
p7110
aVwith visit
p7111
atp7112
a(I1
(lp7113
Vwith treating
p7114
aVwith treat
p7115
atp7116
a(I1
(lp7117
Vwith trailing
p7118
aVwith trail
p7119
atp7120
a(I1
(lp7121
Vwith touching
p7122
aVwith touch
p7123
atp7124
a(I1
(lp7125
Vwith tossing
p7126
aVwith toss
p7127
atp7128
a(I1
(lp7129
Vwith thumping
p7130
aVwith thump
p7131
atp7132
a(I1
(lp7133
Vwith tearing
p7134
aVwith tear
p7135
atp7136
a(I1
(lp7137
Vwith swelling
p7138
aVwith swell
p7139
atp7140
a(I1
(lp7141
Vwith sucking
p7142
aVwith suck
p7143
atp7144
a(I1
(lp7145
Vwith steering
p7146
aVwith steer
p7147
atp7148
a(I1
(lp7149
Vwith smelling
p7150
aVwith smell
p7151
atp7152
a(I1
(lp7153
Vwith shrinking
p7154
aVwith shrink
p7155
atp7156
a(I1
(lp7157
Vwith showing
p7158
aVwith show
p7159
atp7160
a(I1
(lp7161
Vwith shouting
p7162
aVwith shout
p7163
atp7164
a(I1
(lp7165
Vwith shifting
p7166
aVwith shift
p7167
atp7168
a(I1
(lp7169
Vwith seeking
p7170
aVwith seek
p7171
atp7172
a(I1
(lp7173
Vwith seeing
p7174
aVwith see
p7175
atp7176
a(I1
(lp7177
Vwith searching
p7178
aVwith search
p7179
atp7180
a(I1
(lp7181
Vwith saying
p7182
aVwith say
p7183
atp7184
a(I1
(lp7185
Vwith satisfying
p7186
aVwith satisfy
p7187
atp7188
a(I1
(lp7189
Vwith rushing
p7190
aVwith rush
p7191
atp7192
a(I1
(lp7193
Vwith reviewing
p7194
aVwith review
p7195
atp7196
a(I1
(lp7197
Vwith returning
p7198
aVwith return
p7199
atp7200
a(I1
(lp7201
Vwith repeating
p7202
aVwith repeat
p7203
atp7204
a(I1
(lp7205
Vwith repairing
p7206
aVwith repair
p7207
atp7208
a(I1
(lp7209
Vwith reflecting
p7210
aVwith reflect
p7211
atp7212
a(I1
(lp7213
Vwith recruiting
p7214
aVwith recruit
p7215
atp7216
a(I1
(lp7217
Vwith recording
p7218
aVwith record
p7219
atp7220
a(I1
(lp7221
Vwith protecting
p7222
aVwith protect
p7223
atp7224
a(I1
(lp7225
Vwith predicting
p7226
aVwith predict
p7227
atp7228
a(I1
(lp7229
Vwith obtaining
p7230
aVwith obtain
p7231
atp7232
a(I1
(lp7233
Vwith monitoring
p7234
aVwith monitor
p7235
atp7236
a(I1
(lp7237
Vwith mining
p7238
aVwith min
p7239
atp7240
a(I1
(lp7241
Vwith losing
p7242
aVwith los
p7243
atp7244
a(I1
(lp7245
Vwith lifting
p7246
aVwith lift
p7247
atp7248
a(I1
(lp7249
Vwith kicking
p7250
aVwith kick
p7251
atp7252
a(I1
(lp7253
Vwith jumping
p7254
aVwith jump
p7255
atp7256
a(I1
(lp7257
Vwith implementing
p7258
aVwith implement
p7259
atp7260
a(I1
(lp7261
Vwith identifying
p7262
aVwith identify
p7263
atp7264
a(I1
(lp7265
Vwith hurrying
p7266
aVwith hurry
p7267
atp7268
a(I1
(lp7269
Vwith gleaming
p7270
aVwith gleam
p7271
atp7272
a(I1
(lp7273
Vwith founding
p7274
aVwith found
p7275
atp7276
a(I1
(lp7277
Vwith floating
p7278
aVwith float
p7279
atp7280
a(I1
(lp7281
Vwith flashing
p7282
aVwith flash
p7283
atp7284
a(I1
(lp7285
Vwith fixing
p7286
aVwith fix
p7287
atp7288
a(I1
(lp7289
Vwith exceeding
p7290
aVwith exceed
p7291
atp7292
a(I1
(lp7293
Vwith establishing
p7294
aVwith establish
p7295
atp7296
a(I1
(lp7297
Vwith dreaming
p7298
aVwith dream
p7299
atp7300
a(I1
(lp7301
Vwith drafting
p7302
aVwith draft
p7303
atp7304
a(I1
(lp7305
Vwith developing
p7306
aVwith develop
p7307
atp7308
a(I1
(lp7309
Vwith crying
p7310
aVwith cry
p7311
atp7312
a(I1
(lp7313
Vwith crushing
p7314
aVwith crush
p7315
atp7316
a(I1
(lp7317
Vwith creeping
p7318
aVwith creep
p7319
atp7320
a(I1
(lp7321
Vwith crawling
p7322
aVwith crawl
p7323
atp7324
a(I1
(lp7325
Vwith counting
p7326
aVwith count
p7327
atp7328
a(I1
(lp7329
Vwith copying
p7330
aVwith copy
p7331
atp7332
a(I1
(lp7333
Vwith constructing
p7334
aVwith construct
p7335
atp7336
a(I1
(lp7337
Vwith collecting
p7338
aVwith collect
p7339
atp7340
a(I1
(lp7341
Vwith classifying
p7342
aVwith classify
p7343
atp7344
a(I1
(lp7345
Vwith chilling
p7346
aVwith chill
p7347
atp7348
a(I1
(lp7349
Vwith checking
p7350
aVwith check
p7351
atp7352
a(I1
(lp7353
Vwith bothering
p7354
aVwith bother
p7355
atp7356
a(I1
(lp7357
Vwith boarding
p7358
aVwith board
p7359
atp7360
a(I1
(lp7361
Vwith blowing
p7362
aVwith blow
p7363
atp7364
a(I1
(lp7365
Vwith blending
p7366
aVwith blend
p7367
atp7368
a(I1
(lp7369
Vwith bleeding
p7370
aVwith bleed
p7371
atp7372
a(I1
(lp7373
Vwith biting
p7374
aVwith bit
p7375
atp7376
a(I1
(lp7377
Vwith beating
p7378
aVwith beat
p7379
atp7380
a(I1
(lp7381
Vwith avoiding
p7382
aVwith avoid
p7383
atp7384
a(I1
(lp7385
Vwith attending
p7386
aVwith attend
p7387
atp7388
a(I1
(lp7389
Vwith attaching
p7390
aVwith attach
p7391
atp7392
a(I1
(lp7393
Vwith assigning
p7394
aVwith assign
p7395
atp7396
a(I1
(lp7397
Vwith answering
p7398
aVwith answer
p7399
atp7400
a(I1
(lp7401
Vwith administering
p7402
aVwith administer
p7403
atp7404
a(I1
(lp7405
Vwith acting
p7406
aVwith act
p7407
atp7408
a(I1
(lp7409
Vwith accompanying
p7410
aVwith accompany
p7411
atp7412
a(I1
(lp7413
Vwhilst performing
p7414
aVwhilst perform
p7415
atp7416
a(I1
(lp7417
Vwhile warming
p7418
aVwhile warm
p7419
atp7420
a(I1
(lp7421
Vwhile visiting
p7422
aVwhile visit
p7423
atp7424
a(I1
(lp7425
Vwhile undergoing
p7426
aVwhile undergo
p7427
atp7428
a(I1
(lp7429
Vwhile turning
p7430
aVwhile turn
p7431
atp7432
a(I1
(lp7433
Vwhile swallowing
p7434
aVwhile swallow
p7435
atp7436
a(I1
(lp7437
Vwhile supplying
p7438
aVwhile supply
p7439
atp7440
a(I1
(lp7441
Vwhile stuffing
p7442
aVwhile stuff
p7443
atp7444
a(I1
(lp7445
Vwhile strolling
p7446
aVwhile stroll
p7447
atp7448
a(I1
(lp7449
Vwhile strengthening
p7450
aVwhile strengthen
p7451
atp7452
a(I1
(lp7453
Vwhile staying
p7454
aVwhile stay
p7455
atp7456
a(I1
(lp7457
Vwhile staring
p7458
aVwhile star
p7459
atp7460
a(I1
(lp7461
Vwhile stamping
p7462
aVwhile stamp
p7463
atp7464
a(I1
(lp7465
Vwhile spending
p7466
aVwhile spend
p7467
atp7468
a(I1
(lp7469
Vwhile speeding
p7470
aVwhile speed
p7471
atp7472
a(I1
(lp7473
Vwhile sniffing
p7474
aVwhile sniff
p7475
atp7476
a(I1
(lp7477
Vwhile shifting
p7478
aVwhile shift
p7479
atp7480
a(I1
(lp7481
Vwhile searching
p7482
aVwhile search
p7483
atp7484
a(I1
(lp7485
Vwhile rushing
p7486
aVwhile rush
p7487
atp7488
a(I1
(lp7489
Vwhile rocking
p7490
aVwhile rock
p7491
atp7492
a(I1
(lp7493
Vwhile retaining
p7494
aVwhile retain
p7495
atp7496
a(I1
(lp7497
Vwhile representing
p7498
aVwhile represent
p7499
atp7500
a(I1
(lp7501
Vwhile relaxing
p7502
aVwhile relax
p7503
atp7504
a(I1
(lp7505
Vwhile reaching
p7506
aVwhile reach
p7507
atp7508
a(I1
(lp7509
Vwhile pulling
p7510
aVwhile pull
p7511
atp7512
a(I1
(lp7513
Vwhile protecting
p7514
aVwhile protect
p7515
atp7516
a(I1
(lp7517
Vwhile prohibiting
p7518
aVwhile prohibit
p7519
atp7520
a(I1
(lp7521
Vwhile preventing
p7522
aVwhile prevent
p7523
atp7524
a(I1
(lp7525
Vwhile presenting
p7526
aVwhile present
p7527
atp7528
a(I1
(lp7529
Vwhile performing
p7530
aVwhile perform
p7531
atp7532
a(I1
(lp7533
Vwhile obtaining
p7534
aVwhile obtain
p7535
atp7536
a(I1
(lp7537
Vwhile mounting
p7538
aVwhile mount
p7539
atp7540
a(I1
(lp7541
Vwhile meeting
p7542
aVwhile meet
p7543
atp7544
a(I1
(lp7545
Vwhile limiting
p7546
aVwhile limit
p7547
atp7548
a(I1
(lp7549
Vwhile lettering
p7550
aVwhile letter
p7551
atp7552
a(I1
(lp7553
Vwhile leaning
p7554
aVwhile lean
p7555
atp7556
a(I1
(lp7557
Vwhile laughing
p7558
aVwhile laugh
p7559
atp7560
a(I1
(lp7561
Vwhile inserting
p7562
aVwhile insert
p7563
atp7564
a(I1
(lp7565
Vwhile informing
p7566
aVwhile inform
p7567
atp7568
a(I1
(lp7569
Vwhile herding
p7570
aVwhile herd
p7571
atp7572
a(I1
(lp7573
Vwhile hearing
p7574
aVwhile hear
p7575
atp7576
a(I1
(lp7577
Vwhile gaining
p7578
aVwhile gain
p7579
atp7580
a(I1
(lp7581
Vwhile functioning
p7582
aVwhile function
p7583
atp7584
a(I1
(lp7585
Vwhile forming
p7586
aVwhile form
p7587
atp7588
a(I1
(lp7589
Vwhile following
p7590
aVwhile follow
p7591
atp7592
a(I1
(lp7593
Vwhile floating
p7594
aVwhile float
p7595
atp7596
a(I1
(lp7597
Vwhile fighting
p7598
aVwhile fight
p7599
atp7600
a(I1
(lp7601
Vwhile falling
p7602
aVwhile fall
p7603
atp7604
a(I1
(lp7605
Vwhile explaining
p7606
aVwhile explain
p7607
atp7608
a(I1
(lp7609
Vwhile establishing
p7610
aVwhile establish
p7611
atp7612
a(I1
(lp7613
Vwhile dreaming
p7614
aVwhile dream
p7615
atp7616
a(I1
(lp7617
Vwhile directing
p7618
aVwhile direct
p7619
atp7620
a(I1
(lp7621
Vwhile designing
p7622
aVwhile design
p7623
atp7624
a(I1
(lp7625
Vwhile delivering
p7626
aVwhile deliver
p7627
atp7628
a(I1
(lp7629
Vwhile counting
p7630
aVwhile count
p7631
atp7632
a(I1
(lp7633
Vwhile coughing
p7634
aVwhile cough
p7635
atp7636
a(I1
(lp7637
Vwhile considering
p7638
aVwhile consider
p7639
atp7640
a(I1
(lp7641
Vwhile conducting
p7642
aVwhile conduct
p7643
atp7644
a(I1
(lp7645
Vwhile complaining
p7646
aVwhile complain
p7647
atp7648
a(I1
(lp7649
Vwhile collecting
p7650
aVwhile collect
p7651
atp7652
a(I1
(lp7653
Vwhile claiming
p7654
aVwhile claim
p7655
atp7656
a(I1
(lp7657
Vwhile chewing
p7658
aVwhile chew
p7659
atp7660
a(I1
(lp7661
Vwhile casting
p7662
aVwhile cast
p7663
atp7664
a(I1
(lp7665
Vwhile building
p7666
aVwhile build
p7667
atp7668
a(I1
(lp7669
Vwhile breaking
p7670
aVwhile break
p7671
atp7672
a(I1
(lp7673
Vwhile bending
p7674
aVwhile bend
p7675
atp7676
a(I1
(lp7677
Vwhile avoiding
p7678
aVwhile avoid
p7679
atp7680
a(I1
(lp7681
Vwhile attracting
p7682
aVwhile attract
p7683
atp7684
a(I1
(lp7685
Vwhile appearing
p7686
aVwhile appear
p7687
atp7688
a(I1
(lp7689
Vwhile allowing
p7690
aVwhile allow
p7691
atp7692
a(I1
(lp7693
Vwhile according
p7694
aVwhile accord
p7695
atp7696
a(I1
(lp7697
Vwhile accepting
p7698
aVwhile accept
p7699
atp7700
a(I1
(lp7701
Vwhether working
p7702
aVwhether work
p7703
atp7704
a(I1
(lp7705
Vwhether using
p7706
aVwhether us
p7707
atp7708
a(I1
(lp7709
Vwhether traveling
p7710
aVwhether travel
p7711
atp7712
a(I1
(lp7713
Vwhether speaking
p7714
aVwhether speak
p7715
atp7716
a(I1
(lp7717
Vwhether going
p7718
aVwhether go
p7719
atp7720
a(I1
(lp7721
Vwhether fighting
p7722
aVwhether fight
p7723
atp7724
a(I1
(lp7725
Vwhether existing
p7726
aVwhether exist
p7727
atp7728
a(I1
(lp7729
Vwhether entering
p7730
aVwhether enter
p7731
atp7732
a(I1
(lp7733
Vwhether checking
p7734
aVwhether check
p7735
atp7736
a(I1
(lp7737
Vwhereas laying
p7738
aVwhereas lay
p7739
atp7740
a(I1
(lp7741
Vwhereas earning
p7742
aVwhereas earn
p7743
atp7744
a(I1
(lp7745
Vvia connecting
p7746
aVvia connect
p7747
atp7748
a(I1
(lp7749
Vupon walking
p7750
aVupon walk
p7751
atp7752
a(I1
(lp7753
Vupon trying
p7754
aVupon try
p7755
atp7756
a(I1
(lp7757
Vupon transporting
p7758
aVupon transport
p7759
atp7760
a(I1
(lp7761
Vupon telling
p7762
aVupon tell
p7763
atp7764
a(I1
(lp7765
Vupon talking
p7766
aVupon talk
p7767
atp7768
a(I1
(lp7769
Vupon surveying
p7770
aVupon survey
p7771
atp7772
a(I1
(lp7773
Vupon staying
p7774
aVupon stay
p7775
atp7776
a(I1
(lp7777
Vupon sorting
p7778
aVupon sort
p7779
atp7780
a(I1
(lp7781
Vupon selecting
p7782
aVupon select
p7783
atp7784
a(I1
(lp7785
Vupon saying
p7786
aVupon say
p7787
atp7788
a(I1
(lp7789
Vupon satisfying
p7790
aVupon satisfy
p7791
atp7792
a(I1
(lp7793
Vupon reviewing
p7794
aVupon review
p7795
atp7796
a(I1
(lp7797
Vupon returning
p7798
aVupon return
p7799
atp7800
a(I1
(lp7801
Vupon resting
p7802
aVupon rest
p7803
atp7804
a(I1
(lp7805
Vupon pulling
p7806
aVupon pull
p7807
atp7808
a(I1
(lp7809
Vupon prevailing
p7810
aVupon prevail
p7811
atp7812
a(I1
(lp7813
Vupon painting
p7814
aVupon paint
p7815
atp7816
a(I1
(lp7817
Vupon opening
p7818
aVupon open
p7819
atp7820
a(I1
(lp7821
Vupon meaning
p7822
aVupon mean
p7823
atp7824
a(I1
(lp7825
Vupon maintaining
p7826
aVupon maintain
p7827
atp7828
a(I1
(lp7829
Vupon learning
p7830
aVupon learn
p7831
atp7832
a(I1
(lp7833
Vupon herding
p7834
aVupon herd
p7835
atp7836
a(I1
(lp7837
Vupon growing
p7838
aVupon grow
p7839
atp7840
a(I1
(lp7841
Vupon granting
p7842
aVupon grant
p7843
atp7844
a(I1
(lp7845
Vupon discovering
p7846
aVupon discover
p7847
atp7848
a(I1
(lp7849
Vupon conquering
p7850
aVupon conquer
p7851
atp7852
a(I1
(lp7853
Vupon checking
p7854
aVupon check
p7855
atp7856
a(I1
(lp7857
Vupon attaching
p7858
aVupon attach
p7859
atp7860
a(I1
(lp7861
Vupon assessing
p7862
aVupon assess
p7863
atp7864
a(I1
(lp7865
Vupon accepting
p7866
aVupon accept
p7867
atp7868
a(I1
(lp7869
Vuntil standing
p7870
aVuntil stand
p7871
atp7872
a(I1
(lp7873
Vuntil reaching
p7874
aVuntil reach
p7875
atp7876
a(I1
(lp7877
Vuntil plowing
p7878
aVuntil plow
p7879
atp7880
a(I1
(lp7881
Vuntil opening
p7882
aVuntil open
p7883
atp7884
a(I1
(lp7885
Vuntil feeding
p7886
aVuntil feed
p7887
atp7888
a(I1
(lp7889
Vuntil consulting
p7890
aVuntil consult
p7891
atp7892
a(I1
(lp7893
Vuntil answering
p7894
aVuntil answer
p7895
atp7896
a(I1
(lp7897
Vunless developing
p7898
aVunless develop
p7899
atp7900
a(I1
(lp7901
Vunder rushing
p7902
aVunder rush
p7903
atp7904
a(I1
(lp7905
Vunder floating
p7906
aVunder float
p7907
atp7908
a(I1
(lp7909
Vtowards knowing
p7910
aVtowards know
p7911
atp7912
a(I1
(lp7913
Vtowards helping
p7914
aVtowards help
p7915
atp7916
a(I1
(lp7917
Vtowards entering
p7918
aVtowards enter
p7919
atp7920
a(I1
(lp7921
Vtowards buying
p7922
aVtowards buy
p7923
atp7924
a(I1
(lp7925
Vtoward training
p7926
aVtoward train
p7927
atp7928
a(I1
(lp7929
Vtoward supporting
p7930
aVtoward support
p7931
atp7932
a(I1
(lp7933
Vtoward succeeding
p7934
aVtoward succeed
p7935
atp7936
a(I1
(lp7937
Vtoward studying
p7938
aVtoward study
p7939
atp7940
a(I1
(lp7941
Vtoward spending
p7942
aVtoward spend
p7943
atp7944
a(I1
(lp7945
Vtoward selecting
p7946
aVtoward select
p7947
atp7948
a(I1
(lp7949
Vtoward putting
p7950
aVtoward putt
p7951
atp7952
a(I1
(lp7953
Vtoward maintaining
p7954
aVtoward maintain
p7955
atp7956
a(I1
(lp7957
Vtoward laying
p7958
aVtoward lay
p7959
atp7960
a(I1
(lp7961
Vtoward interpreting
p7962
aVtoward interpret
p7963
atp7964
a(I1
(lp7965
Vtoward explaining
p7966
aVtoward explain
p7967
atp7968
a(I1
(lp7969
Vtill turning
p7970
aVtill turn
p7971
atp7972
a(I1
(lp7973
Vthrough worrying
p7974
aVthrough worry
p7975
atp7976
a(I1
(lp7977
Vthrough winding
p7978
aVthrough wind
p7979
atp7980
a(I1
(lp7981
Vthrough using
p7982
aVthrough us
p7983
atp7984
a(I1
(lp7985
Vthrough traveling
p7986
aVthrough travel
p7987
atp7988
a(I1
(lp7989
Vthrough swaying
p7990
aVthrough sway
p7991
atp7992
a(I1
(lp7993
Vthrough saying
p7994
aVthrough say
p7995
atp7996
a(I1
(lp7997
Vthrough questioning
p7998
aVthrough question
p7999
atp8000
a(I1
(lp8001
Vthrough pumping
p8002
aVthrough pump
p8003
atp8004
a(I1
(lp8005
Vthrough hurting
p8006
aVthrough hurt
p8007
atp8008
a(I1
(lp8009
Vthrough helping
p8010
aVthrough help
p8011
atp8012
a(I1
(lp8013
Vthrough growing
p8014
aVthrough grow
p8015
atp8016
a(I1
(lp8017
Vthrough falling
p8018
aVthrough fall
p8019
atp8020
a(I1
(lp8021
Vthrough drifting
p8022
aVthrough drift
p8023
atp8024
a(I1
(lp8025
Vthrough diminishing
p8026
aVthrough diminish
p8027
atp8028
a(I1
(lp8029
Vthrough dealing
p8030
aVthrough deal
p8031
atp8032
a(I1
(lp8033
Vthrough conducting
p8034
aVthrough conduct
p8035
atp8036
a(I1
(lp8037
Vthrough bleeding
p8038
aVthrough bleed
p8039
atp8040
a(I1
(lp8041
Vthrough attempting
p8042
aVthrough attempt
p8043
atp8044
a(I1
(lp8045
Vthrough applying
p8046
aVthrough apply
p8047
atp8048
a(I1
(lp8049
Vthough waiting
p8050
aVthough wait
p8051
atp8052
a(I1
(lp8053
Vthough varying
p8054
aVthough vary
p8055
atp8056
a(I1
(lp8057
Vthough traveling
p8058
aVthough travel
p8059
atp8060
a(I1
(lp8061
Vthough seeking
p8062
aVthough seek
p8063
atp8064
a(I1
(lp8065
Vthough seeing
p8066
aVthough see
p8067
atp8068
a(I1
(lp8069
Vthough putting
p8070
aVthough putt
p8071
atp8072
a(I1
(lp8073
Vthough playing
p8074
aVthough play
p8075
atp8076
a(I1
(lp8077
Vthough performing
p8078
aVthough perform
p8079
atp8080
a(I1
(lp8081
Vthough meaning
p8082
aVthough mean
p8083
atp8084
a(I1
(lp8085
Vthough looking
p8086
aVthough look
p8087
atp8088
a(I1
(lp8089
Vthough loading
p8090
aVthough load
p8091
atp8092
a(I1
(lp8093
Vthough knowing
p8094
aVthough know
p8095
atp8096
a(I1
(lp8097
Vthough insisting
p8098
aVthough insist
p8099
atp8100
a(I1
(lp8101
Vthough growing
p8102
aVthough grow
p8103
atp8104
a(I1
(lp8105
Vthough fearing
p8106
aVthough fear
p8107
atp8108
a(I1
(lp8109
Vthough differing
p8110
aVthough differ
p8111
atp8112
a(I1
(lp8113
Vthough covering
p8114
aVthough cover
p8115
atp8116
a(I1
(lp8117
Vthough considering
p8118
aVthough consider
p8119
atp8120
a(I1
(lp8121
Vthough biting
p8122
aVthough bit
p8123
atp8124
a(I1
(lp8125
Vthough being
p8126
aVthough be
p8127
atp8128
a(I1
(lp8129
Vthough asking
p8130
aVthough ask
p8131
atp8132
a(I1
(lp8133
Vthat withholding
p8134
aVthat withhold
p8135
atp8136
a(I1
(lp8137
Vthat washing
p8138
aVthat wash
p8139
atp8140
a(I1
(lp8141
Vthat sketching
p8142
aVthat sketch
p8143
atp8144
a(I1
(lp8145
Vthat selecting
p8146
aVthat select
p8147
atp8148
a(I1
(lp8149
Vthat recalling
p8150
aVthat recall
p8151
atp8152
a(I1
(lp8153
Vthat putting
p8154
aVthat putt
p8155
atp8156
a(I1
(lp8157
Vthat multiplying
p8158
aVthat multiply
p8159
atp8160
a(I1
(lp8161
Vthat marrying
p8162
aVthat marry
p8163
atp8164
a(I1
(lp8165
Vthat knocking
p8166
aVthat knock
p8167
atp8168
a(I1
(lp8169
Vthat kissing
p8170
aVthat kiss
p8171
atp8172
a(I1
(lp8173
Vthat jumping
p8174
aVthat jump
p8175
atp8176
a(I1
(lp8177
Vthat howling
p8178
aVthat howl
p8179
atp8180
a(I1
(lp8181
Vthat hissing
p8182
aVthat hiss
p8183
atp8184
a(I1
(lp8185
Vthat avoiding
p8186
aVthat avoid
p8187
atp8188
a(I1
(lp8189
Vthat administering
p8190
aVthat administer
p8191
atp8192
a(I1
(lp8193
Vthan wishing
p8194
aVthan wish
p8195
atp8196
a(I1
(lp8197
Vthan washing
p8198
aVthan wash
p8199
atp8200
a(I1
(lp8201
Vthan viewing
p8202
aVthan view
p8203
atp8204
a(I1
(lp8205
Vthan understanding
p8206
aVthan understand
p8207
atp8208
a(I1
(lp8209
Vthan undergoing
p8210
aVthan undergo
p8211
atp8212
a(I1
(lp8213
Vthan tossing
p8214
aVthan toss
p8215
atp8216
a(I1
(lp8217
Vthan tearing
p8218
aVthan tear
p8219
atp8220
a(I1
(lp8221
Vthan talking
p8222
aVthan talk
p8223
atp8224
a(I1
(lp8225
Vthan steaming
p8226
aVthan steam
p8227
atp8228
a(I1
(lp8229
Vthan speaking
p8230
aVthan speak
p8231
atp8232
a(I1
(lp8233
Vthan sleeping
p8234
aVthan sleep
p8235
atp8236
a(I1
(lp8237
Vthan selecting
p8238
aVthan select
p8239
atp8240
a(I1
(lp8241
Vthan searching
p8242
aVthan search
p8243
atp8244
a(I1
(lp8245
Vthan satisfying
p8246
aVthan satisfy
p8247
atp8248
a(I1
(lp8249
Vthan representing
p8250
aVthan represent
p8251
atp8252
a(I1
(lp8253
Vthan punishing
p8254
aVthan punish
p8255
atp8256
a(I1
(lp8257
Vthan prohibiting
p8258
aVthan prohibit
p8259
atp8260
a(I1
(lp8261
Vthan processing
p8262
aVthan process
p8263
atp8264
a(I1
(lp8265
Vthan preventing
p8266
aVthan prevent
p8267
atp8268
a(I1
(lp8269
Vthan passing
p8270
aVthan pass
p8271
atp8272
a(I1
(lp8273
Vthan owning
p8274
aVthan own
p8275
atp8276
a(I1
(lp8277
Vthan maintaining
p8278
aVthan maintain
p8279
atp8280
a(I1
(lp8281
Vthan lowering
p8282
aVthan lower
p8283
atp8284
a(I1
(lp8285
Vthan lobbying
p8286
aVthan lobby
p8287
atp8288
a(I1
(lp8289
Vthan laying
p8290
aVthan lay
p8291
atp8292
a(I1
(lp8293
Vthan launching
p8294
aVthan launch
p8295
atp8296
a(I1
(lp8297
Vthan knowing
p8298
aVthan know
p8299
atp8300
a(I1
(lp8301
Vthan identifying
p8302
aVthan identify
p8303
atp8304
a(I1
(lp8305
Vthan hearing
p8306
aVthan hear
p8307
atp8308
a(I1
(lp8309
Vthan grasping
p8310
aVthan grasp
p8311
atp8312
a(I1
(lp8313
Vthan focusing
p8314
aVthan focus
p8315
atp8316
a(I1
(lp8317
Vthan flying
p8318
aVthan fly
p8319
atp8320
a(I1
(lp8321
Vthan filling
p8322
aVthan fill
p8323
atp8324
a(I1
(lp8325
Vthan expecting
p8326
aVthan expect
p8327
atp8328
a(I1
(lp8329
Vthan drowning
p8330
aVthan drown
p8331
atp8332
a(I1
(lp8333
Vthan crawling
p8334
aVthan crawl
p8335
atp8336
a(I1
(lp8337
Vthan covering
p8338
aVthan cover
p8339
atp8340
a(I1
(lp8341
Vthan counting
p8342
aVthan count
p8343
atp8344
a(I1
(lp8345
Vthan cleaning
p8346
aVthan clean
p8347
atp8348
a(I1
(lp8349
Vthan claiming
p8350
aVthan claim
p8351
atp8352
a(I1
(lp8353
Vthan changing
p8354
aVthan chang
p8355
atp8356
a(I1
(lp8357
Vthan catching
p8358
aVthan catch
p8359
atp8360
a(I1
(lp8361
Vthan boarding
p8362
aVthan board
p8363
atp8364
a(I1
(lp8365
Vthan biting
p8366
aVthan bit
p8367
atp8368
a(I1
(lp8369
Vthan avoiding
p8370
aVthan avoid
p8371
atp8372
a(I1
(lp8373
Vthan assigning
p8374
aVthan assign
p8375
atp8376
a(I1
(lp8377
Vthan approaching
p8378
aVthan approach
p8379
atp8380
a(I1
(lp8381
Vthan altering
p8382
aVthan alter
p8383
atp8384
a(I1
(lp8385
Vthan according
p8386
aVthan accord
p8387
atp8388
a(I1
(lp8389
Vso collecting
p8390
aVso collect
p8391
atp8392
a(I1
(lp8393
Vsince straightening
p8394
aVsince straighten
p8395
atp8396
a(I1
(lp8397
Vsince sewing
p8398
aVsince sew
p8399
atp8400
a(I1
(lp8401
Vsince seeing
p8402
aVsince see
p8403
atp8404
a(I1
(lp8405
Vsince listening
p8406
aVsince listen
p8407
atp8408
a(I1
(lp8409
Vsince lifting
p8410
aVsince lift
p8411
atp8412
a(I1
(lp8413
Vsince joining
p8414
aVsince join
p8415
atp8416
a(I1
(lp8417
Vsince flying
p8418
aVsince fly
p8419
atp8420
a(I1
(lp8421
Vsince expecting
p8422
aVsince expect
p8423
atp8424
a(I1
(lp8425
Vsince crossing
p8426
aVsince cross
p8427
atp8428
a(I1
(lp8429
Vsince burning
p8430
aVsince burn
p8431
atp8432
a(I1
(lp8433
Vsince borrowing
p8434
aVsince borrow
p8435
atp8436
a(I1
(lp8437
Vsince being
p8438
aVsince be
p8439
atp8440
a(I1
(lp8441
Vpast projecting
p8442
aVpast project
p8443
atp8444
a(I1
(lp8445
Vpast counting
p8446
aVpast count
p8447
atp8448
a(I1
(lp8449
Vover towering
p8450
aVover tower
p8451
atp8452
a(I1
(lp8453
Vover succeeding
p8454
aVover succeed
p8455
atp8456
a(I1
(lp8457
Vover staying
p8458
aVover stay
p8459
atp8460
a(I1
(lp8461
Vover representing
p8462
aVover represent
p8463
atp8464
a(I1
(lp8465
Vover maintaining
p8466
aVover maintain
p8467
atp8468
a(I1
(lp8469
Vover growing
p8470
aVover grow
p8471
atp8472
a(I1
(lp8473
Vover flying
p8474
aVover fly
p8475
atp8476
a(I1
(lp8477
Vover floating
p8478
aVover float
p8479
atp8480
a(I1
(lp8481
Vover fighting
p8482
aVover fight
p8483
atp8484
a(I1
(lp8485
Vover doing
p8486
aVover do
p8487
atp8488
a(I1
(lp8489
Vover conflicting
p8490
aVover conflict
p8491
atp8492
a(I1
(lp8493
Vover changing
p8494
aVover chang
p8495
atp8496
a(I1
(lp8497
Voutside waiting
p8498
aVoutside wait
p8499
atp8500
a(I1
(lp8501
Voutside throwing
p8502
aVoutside throw
p8503
atp8504
a(I1
(lp8505
Voutside pulling
p8506
aVoutside pull
p8507
atp8508
a(I1
(lp8509
Voutside dressing
p8510
aVoutside dress
p8511
atp8512
a(I1
(lp8513
Vout visiting
p8514
aVout visit
p8515
atp8516
a(I1
(lp8517
Vout trying
p8518
aVout try
p8519
atp8520
a(I1
(lp8521
Vout riding
p8522
aVout rid
p8523
atp8524
a(I1
(lp8525
Vout picking
p8526
aVout pick
p8527
atp8528
a(I1
(lp8529
Vout orbiting
p8530
aVout orbit
p8531
atp8532
a(I1
(lp8533
Vout hanging
p8534
aVout hang
p8535
atp8536
a(I1
(lp8537
Vout crying
p8538
aVout cry
p8539
atp8540
a(I1
(lp8541
Von worrying
p8542
aVon worry
p8543
atp8544
a(I1
(lp8545
Von withholding
p8546
aVon withhold
p8547
atp8548
a(I1
(lp8549
Von whispering
p8550
aVon whisper
p8551
atp8552
a(I1
(lp8553
Von weighing
p8554
aVon weigh
p8555
atp8556
a(I1
(lp8557
Von visiting
p8558
aVon visit
p8559
atp8560
a(I1
(lp8561
Von varying
p8562
aVon vary
p8563
atp8564
a(I1
(lp8565
Von twisting
p8566
aVon twist
p8567
atp8568
a(I1
(lp8569
Von touching
p8570
aVon touch
p8571
atp8572
a(I1
(lp8573
Von throwing
p8574
aVon throw
p8575
atp8576
a(I1
(lp8577
Von strolling
p8578
aVon stroll
p8579
atp8580
a(I1
(lp8581
Von strengthening
p8582
aVon strengthen
p8583
atp8584
a(I1
(lp8585
Von staying
p8586
aVon stay
p8587
atp8588
a(I1
(lp8589
Von sliding
p8590
aVon slid
p8591
atp8592
a(I1
(lp8593
Von sinking
p8594
aVon sink
p8595
atp8596
a(I1
(lp8597
Von showing
p8598
aVon show
p8599
atp8600
a(I1
(lp8601
Von seeking
p8602
aVon seek
p8603
atp8604
a(I1
(lp8605
Von screaming
p8606
aVon scream
p8607
atp8608
a(I1
(lp8609
Von scratching
p8610
aVon scratch
p8611
atp8612
a(I1
(lp8613
Von riding
p8614
aVon rid
p8615
atp8616
a(I1
(lp8617
Von retaining
p8618
aVon retain
p8619
atp8620
a(I1
(lp8621
Von responding
p8622
aVon respond
p8623
atp8624
a(I1
(lp8625
Von repeating
p8626
aVon repeat
p8627
atp8628
a(I1
(lp8629
Von remembering
p8630
aVon remember
p8631
atp8632
a(I1
(lp8633
Von remaining
p8634
aVon remain
p8635
atp8636
a(I1
(lp8637
Von relaxing
p8638
aVon relax
p8639
atp8640
a(I1
(lp8641
Von recruiting
p8642
aVon recruit
p8643
atp8644
a(I1
(lp8645
Von questioning
p8646
aVon question
p8647
atp8648
a(I1
(lp8649
Von protecting
p8650
aVon protect
p8651
atp8652
a(I1
(lp8653
Von preventing
p8654
aVon prevent
p8655
atp8656
a(I1
(lp8657
Von pressing
p8658
aVon press
p8659
atp8660
a(I1
(lp8661
Von preaching
p8662
aVon preach
p8663
atp8664
a(I1
(lp8665
Von praying
p8666
aVon pray
p8667
atp8668
a(I1
(lp8669
Von pitching
p8670
aVon pitch
p8671
atp8672
a(I1
(lp8673
Von picking
p8674
aVon pick
p8675
atp8676
a(I1
(lp8677
Von performing
p8678
aVon perform
p8679
atp8680
a(I1
(lp8681
Von packing
p8682
aVon pack
p8683
atp8684
a(I1
(lp8685
Von neighboring
p8686
aVon neighbor
p8687
atp8688
a(I1
(lp8689
Von marrying
p8690
aVon marry
p8691
atp8692
a(I1
(lp8693
Von laying
p8694
aVon lay
p8695
atp8696
a(I1
(lp8697
Von installing
p8698
aVon install
p8699
atp8700
a(I1
(lp8701
Von hurting
p8702
aVon hurt
p8703
atp8704
a(I1
(lp8705
Von hoping
p8706
aVon hop
p8707
atp8708
a(I1
(lp8709
Von hiding
p8710
aVon hid
p8711
atp8712
a(I1
(lp8713
Von hatching
p8714
aVon hatch
p8715
atp8716
a(I1
(lp8717
Von gaining
p8718
aVon gain
p8719
atp8720
a(I1
(lp8721
Von flashing
p8722
aVon flash
p8723
atp8724
a(I1
(lp8725
Von fixing
p8726
aVon fix
p8727
atp8728
a(I1
(lp8729
Von finishing
p8730
aVon finish
p8731
atp8732
a(I1
(lp8733
Von explaining
p8734
aVon explain
p8735
atp8736
a(I1
(lp8737
Von establishing
p8738
aVon establish
p8739
atp8740
a(I1
(lp8741
Von dreaming
p8742
aVon dream
p8743
atp8744
a(I1
(lp8745
Von drawing
p8746
aVon draw
p8747
atp8748
a(I1
(lp8749
Von discussing
p8750
aVon discuss
p8751
atp8752
a(I1
(lp8753
Von depending
p8754
aVon depend
p8755
atp8756
a(I1
(lp8757
Von dealing
p8758
aVon deal
p8759
atp8760
a(I1
(lp8761
Von converting
p8762
aVon convert
p8763
atp8764
a(I1
(lp8765
Von classifying
p8766
aVon classify
p8767
atp8768
a(I1
(lp8769
Von cheating
p8770
aVon cheat
p8771
atp8772
a(I1
(lp8773
Von boiling
p8774
aVon boil
p8775
atp8776
a(I1
(lp8777
Von blending
p8778
aVon blend
p8779
atp8780
a(I1
(lp8781
Von banging
p8782
aVon bang
p8783
atp8784
a(I1
(lp8785
Von avoiding
p8786
aVon avoid
p8787
atp8788
a(I1
(lp8789
Von affecting
p8790
aVon affect
p8791
atp8792
a(I1
(lp8793
Von adding
p8794
aVon add
p8795
atp8796
a(I1
(lp8797
Von according
p8798
aVon accord
p8799
atp8800
a(I1
(lp8801
Voff trying
p8802
aVoff try
p8803
atp8804
a(I1
(lp8805
Vof yielding
p8806
aVof yield
p8807
atp8808
a(I1
(lp8809
Vof twisting
p8810
aVof twist
p8811
atp8812
a(I1
(lp8813
Vof ticking
p8814
aVof tick
p8815
atp8816
a(I1
(lp8817
Vof sucking
p8818
aVof suck
p8819
atp8820
a(I1
(lp8821
Vof subtracting
p8822
aVof subtract
p8823
atp8824
a(I1
(lp8825
Vof spoiling
p8826
aVof spoil
p8827
atp8828
a(I1
(lp8829
Vof soaking
p8830
aVof soak
p8831
atp8832
a(I1
(lp8833
Vof reminding
p8834
aVof remind
p8835
atp8836
a(I1
(lp8837
Vof prevailing
p8838
aVof prevail
p8839
atp8840
a(I1
(lp8841
Vof overlooking
p8842
aVof overlook
p8843
atp8844
a(I1
(lp8845
Vof occupying
p8846
aVof occupy
p8847
atp8848
a(I1
(lp8849
Vof licking
p8850
aVof lick
p8851
atp8852
a(I1
(lp8853
Vof kissing
p8854
aVof kiss
p8855
atp8856
a(I1
(lp8857
Vof jerking
p8858
aVof jerk
p8859
atp8860
a(I1
(lp8861
Vof inserting
p8862
aVof insert
p8863
atp8864
a(I1
(lp8865
Vof howling
p8866
aVof howl
p8867
atp8868
a(I1
(lp8869
Vof hoping
p8870
aVof hop
p8871
atp8872
a(I1
(lp8873
Vof happening
p8874
aVof happen
p8875
atp8876
a(I1
(lp8877
Vof gasping
p8878
aVof gasp
p8879
atp8880
a(I1
(lp8881
Vof galloping
p8882
aVof gallop
p8883
atp8884
a(I1
(lp8885
Vof fleeing
p8886
aVof flee
p8887
atp8888
a(I1
(lp8889
Vof exceeding
p8890
aVof exceed
p8891
atp8892
a(I1
(lp8893
Vof disappearing
p8894
aVof disappear
p8895
atp8896
a(I1
(lp8897
Vof descending
p8898
aVof descend
p8899
atp8900
a(I1
(lp8901
Vof depressing
p8902
aVof depress
p8903
atp8904
a(I1
(lp8905
Vof depending
p8906
aVof depend
p8907
atp8908
a(I1
(lp8909
Vof containing
p8910
aVof contain
p8911
atp8912
a(I1
(lp8913
Vof consulting
p8914
aVof consult
p8915
atp8916
a(I1
(lp8917
Vof consisting
p8918
aVof consist
p8919
atp8920
a(I1
(lp8921
Vof clicking
p8922
aVof click
p8923
atp8924
a(I1
(lp8925
Vof according
p8926
aVof accord
p8927
atp8928
a(I1
(lp8929
Vnear throwing
p8930
aVnear throw
p8931
atp8932
a(I1
(lp8933
Vnear telling
p8934
aVnear tell
p8935
atp8936
a(I1
(lp8937
Vnear drowning
p8938
aVnear drown
p8939
atp8940
a(I1
(lp8941
Vlike weeping
p8942
aVlike weep
p8943
atp8944
a(I1
(lp8945
Vlike wanting
p8946
aVlike want
p8947
atp8948
a(I1
(lp8949
Vlike wandering
p8950
aVlike wander
p8951
atp8952
a(I1
(lp8953
Vlike twisting
p8954
aVlike twist
p8955
atp8956
a(I1
(lp8957
Vlike trailing
p8958
aVlike trail
p8959
atp8960
a(I1
(lp8961
Vlike threatening
p8962
aVlike threaten
p8963
atp8964
a(I1
(lp8965
Vlike sucking
p8966
aVlike suck
p8967
atp8968
a(I1
(lp8969
Vlike studying
p8970
aVlike study
p8971
atp8972
a(I1
(lp8973
Vlike sewing
p8974
aVlike sew
p8975
atp8976
a(I1
(lp8977
Vlike returning
p8978
aVlike return
p8979
atp8980
a(I1
(lp8981
Vlike printing
p8982
aVlike print
p8983
atp8984
a(I1
(lp8985
Vlike praying
p8986
aVlike pray
p8987
atp8988
a(I1
(lp8989
Vlike pouring
p8990
aVlike pour
p8991
atp8992
a(I1
(lp8993
Vlike picking
p8994
aVlike pick
p8995
atp8996
a(I1
(lp8997
Vlike peeling
p8998
aVlike peel
p8999
atp9000
a(I1
(lp9001
Vlike passing
p9002
aVlike pass
p9003
atp9004
a(I1
(lp9005
Vlike mending
p9006
aVlike mend
p9007
atp9008
a(I1
(lp9009
Vlike meeting
p9010
aVlike meet
p9011
atp9012
a(I1
(lp9013
Vlike limiting
p9014
aVlike limit
p9015
atp9016
a(I1
(lp9017
Vlike killing
p9018
aVlike kill
p9019
atp9020
a(I1
(lp9021
Vlike hurrying
p9022
aVlike hurry
p9023
atp9024
a(I1
(lp9025
Vlike holding
p9026
aVlike hold
p9027
atp9028
a(I1
(lp9029
Vlike herding
p9030
aVlike herd
p9031
atp9032
a(I1
(lp9033
Vlike helping
p9034
aVlike help
p9035
atp9036
a(I1
(lp9037
Vlike hanging
p9038
aVlike hang
p9039
atp9040
a(I1
(lp9041
Vlike guarding
p9042
aVlike guard
p9043
atp9044
a(I1
(lp9045
Vlike growing
p9046
aVlike grow
p9047
atp9048
a(I1
(lp9049
Vlike floating
p9050
aVlike float
p9051
atp9052
a(I1
(lp9053
Vlike flashing
p9054
aVlike flash
p9055
atp9056
a(I1
(lp9057
Vlike fixing
p9058
aVlike fix
p9059
atp9060
a(I1
(lp9061
Vlike discovering
p9062
aVlike discover
p9063
atp9064
a(I1
(lp9065
Vlike delivering
p9066
aVlike deliver
p9067
atp9068
a(I1
(lp9069
Vlike crawling
p9070
aVlike crawl
p9071
atp9072
a(I1
(lp9073
Vlike cracking
p9074
aVlike crack
p9075
atp9076
a(I1
(lp9077
Vlike chewing
p9078
aVlike chew
p9079
atp9080
a(I1
(lp9081
Vlike buying
p9082
aVlike buy
p9083
atp9084
a(I1
(lp9085
Vlike breeding
p9086
aVlike breed
p9087
atp9088
a(I1
(lp9089
Vlike biting
p9090
aVlike bit
p9091
atp9092
a(I1
(lp9093
Vlike bending
p9094
aVlike bend
p9095
atp9096
a(I1
(lp9097
Vlike banging
p9098
aVlike bang
p9099
atp9100
a(I1
(lp9101
Vlike adding
p9102
aVlike add
p9103
atp9104
a(I1
(lp9105
Vlike acting
p9106
aVlike act
p9107
atp9108
a(I1
(lp9109
Vinto waiting
p9110
aVinto wait
p9111
atp9112
a(I1
(lp9113
Vinto telling
p9114
aVinto tell
p9115
atp9116
a(I1
(lp9117
Vinto talking
p9118
aVinto talk
p9119
atp9120
a(I1
(lp9121
Vinto supporting
p9122
aVinto support
p9123
atp9124
a(I1
(lp9125
Vinto standing
p9126
aVinto stand
p9127
atp9128
a(I1
(lp9129
Vinto seeing
p9130
aVinto see
p9131
atp9132
a(I1
(lp9133
Vinto returning
p9134
aVinto return
p9135
atp9136
a(I1
(lp9137
Vinto retaining
p9138
aVinto retain
p9139
atp9140
a(I1
(lp9141
Vinto repeating
p9142
aVinto repeat
p9143
atp9144
a(I1
(lp9145
Vinto protesting
p9146
aVinto protest
p9147
atp9148
a(I1
(lp9149
Vinto predicting
p9150
aVinto predict
p9151
atp9152
a(I1
(lp9153
Vinto pounding
p9154
aVinto pound
p9155
atp9156
a(I1
(lp9157
Vinto leaping
p9158
aVinto leap
p9159
atp9160
a(I1
(lp9161
Vinto laying
p9162
aVinto lay
p9163
atp9164
a(I1
(lp9165
Vinto knocking
p9166
aVinto knock
p9167
atp9168
a(I1
(lp9169
Vinto killing
p9170
aVinto kill
p9171
atp9172
a(I1
(lp9173
Vinto joining
p9174
aVinto join
p9175
atp9176
a(I1
(lp9177
Vinto identifying
p9178
aVinto identify
p9179
atp9180
a(I1
(lp9181
Vinto hurrying
p9182
aVinto hurry
p9183
atp9184
a(I1
(lp9185
Vinto hanging
p9186
aVinto hang
p9187
atp9188
a(I1
(lp9189
Vinto growing
p9190
aVinto grow
p9191
atp9192
a(I1
(lp9193
Vinto functioning
p9194
aVinto function
p9195
atp9196
a(I1
(lp9197
Vinto following
p9198
aVinto follow
p9199
atp9200
a(I1
(lp9201
Vinto flying
p9202
aVinto fly
p9203
atp9204
a(I1
(lp9205
Vinto finding
p9206
aVinto find
p9207
atp9208
a(I1
(lp9209
Vinto fighting
p9210
aVinto fight
p9211
atp9212
a(I1
(lp9213
Vinto existing
p9214
aVinto exist
p9215
atp9216
a(I1
(lp9217
Vinto drifting
p9218
aVinto drift
p9219
atp9220
a(I1
(lp9221
Vinto drawing
p9222
aVinto draw
p9223
atp9224
a(I1
(lp9225
Vinto checking
p9226
aVinto check
p9227
atp9228
a(I1
(lp9229
Vinto burning
p9230
aVinto burn
p9231
atp9232
a(I1
(lp9233
Vinto blinding
p9234
aVinto blind
p9235
atp9236
a(I1
(lp9237
Vinto attending
p9238
aVinto attend
p9239
atp9240
a(I1
(lp9241
Vinto attacking
p9242
aVinto attack
p9243
atp9244
a(I1
(lp9245
Vinto altering
p9246
aVinto alter
p9247
atp9248
a(I1
(lp9249
Vinto adopting
p9250
aVinto adopt
p9251
atp9252
a(I1
(lp9253
Vinto acting
p9254
aVinto act
p9255
atp9256
a(I1
(lp9257
Vinside pulling
p9258
aVinside pull
p9259
atp9260
a(I1
(lp9261
Vin yelling
p9262
aVin yell
p9263
atp9264
a(I1
(lp9265
Vin widening
p9266
aVin widen
p9267
atp9268
a(I1
(lp9269
Vin whispering
p9270
aVin whisper
p9271
atp9272
a(I1
(lp9273
Vin weighing
p9274
aVin weigh
p9275
atp9276
a(I1
(lp9277
Vin weeping
p9278
aVin weep
p9279
atp9280
a(I1
(lp9281
Vin towering
p9282
aVin tower
p9283
atp9284
a(I1
(lp9285
Vin tending
p9286
aVin tend
p9287
atp9288
a(I1
(lp9289
Vin swelling
p9290
aVin swell
p9291
atp9292
a(I1
(lp9293
Vin sweeping
p9294
aVin sweep
p9295
atp9296
a(I1
(lp9297
Vin swaying
p9298
aVin sway
p9299
atp9300
a(I1
(lp9301
Vin swarming
p9302
aVin swarm
p9303
atp9304
a(I1
(lp9305
Vin swallowing
p9306
aVin swallow
p9307
atp9308
a(I1
(lp9309
Vin surrounding
p9310
aVin surround
p9311
atp9312
a(I1
(lp9313
Vin suggesting
p9314
aVin suggest
p9315
atp9316
a(I1
(lp9317
Vin succeeding
p9318
aVin succeed
p9319
atp9320
a(I1
(lp9321
Vin subtracting
p9322
aVin subtract
p9323
atp9324
a(I1
(lp9325
Vin straightening
p9326
aVin straighten
p9327
atp9328
a(I1
(lp9329
Vin staring
p9330
aVin star
p9331
atp9332
a(I1
(lp9333
Vin splashing
p9334
aVin splash
p9335
atp9336
a(I1
(lp9337
Vin soaking
p9338
aVin soak
p9339
atp9340
a(I1
(lp9341
Vin shrinking
p9342
aVin shrink
p9343
atp9344
a(I1
(lp9345
Vin shouting
p9346
aVin shout
p9347
atp9348
a(I1
(lp9349
Vin screening
p9350
aVin screen
p9351
atp9352
a(I1
(lp9353
Vin revealing
p9354
aVin reveal
p9355
atp9356
a(I1
(lp9357
Vin resting
p9358
aVin rest
p9359
atp9360
a(I1
(lp9361
Vin representing
p9362
aVin represent
p9363
atp9364
a(I1
(lp9365
Vin remaining
p9366
aVin remain
p9367
atp9368
a(I1
(lp9369
Vin raging
p9370
aVin rag
p9371
atp9372
a(I1
(lp9373
Vin pulling
p9374
aVin pull
p9375
atp9376
a(I1
(lp9377
Vin praying
p9378
aVin pray
p9379
atp9380
a(I1
(lp9381
Vin monitoring
p9382
aVin monitor
p9383
atp9384
a(I1
(lp9385
Vin mating
p9386
aVin mat
p9387
atp9388
a(I1
(lp9389
Vin listing
p9390
aVin list
p9391
atp9392
a(I1
(lp9393
Vin guarding
p9394
aVin guard
p9395
atp9396
a(I1
(lp9397
Vin grinding
p9398
aVin grind
p9399
atp9400
a(I1
(lp9401
Vin glittering
p9402
aVin glitter
p9403
atp9404
a(I1
(lp9405
Vin founding
p9406
aVin found
p9407
atp9408
a(I1
(lp9409
Vin flourishing
p9410
aVin flourish
p9411
atp9412
a(I1
(lp9413
Vin floating
p9414
aVin float
p9415
atp9416
a(I1
(lp9417
Vin fleeing
p9418
aVin flee
p9419
atp9420
a(I1
(lp9421
Vin fixing
p9422
aVin fix
p9423
atp9424
a(I1
(lp9425
Vin finishing
p9426
aVin finish
p9427
atp9428
a(I1
(lp9429
Vin fastening
p9430
aVin fasten
p9431
atp9432
a(I1
(lp9433
Vin failing
p9434
aVin fail
p9435
atp9436
a(I1
(lp9437
Vin enjoying
p9438
aVin enjoy
p9439
atp9440
a(I1
(lp9441
Vin drilling
p9442
aVin drill
p9443
atp9444
a(I1
(lp9445
Vin depending
p9446
aVin depend
p9447
atp9448
a(I1
(lp9449
Vin crushing
p9450
aVin crush
p9451
atp9452
a(I1
(lp9453
Vin crawling
p9454
aVin crawl
p9455
atp9456
a(I1
(lp9457
Vin cracking
p9458
aVin crack
p9459
atp9460
a(I1
(lp9461
Vin counting
p9462
aVin count
p9463
atp9464
a(I1
(lp9465
Vin connecting
p9466
aVin connect
p9467
atp9468
a(I1
(lp9469
Vin confronting
p9470
aVin confront
p9471
atp9472
a(I1
(lp9473
Vin bumping
p9474
aVin bump
p9475
atp9476
a(I1
(lp9477
Vin biting
p9478
aVin bit
p9479
atp9480
a(I1
(lp9481
Vin attacking
p9482
aVin attack
p9483
atp9484
a(I1
(lp9485
Vin appearing
p9486
aVin appear
p9487
atp9488
a(I1
(lp9489
Vin affecting
p9490
aVin affect
p9491
atp9492
a(I1
(lp9493
Vin accompanying
p9494
aVin accompany
p9495
atp9496
a(I1
(lp9497
Vin absorbing
p9498
aVin absorb
p9499
atp9500
a(I1
(lp9501
Vif wishing
p9502
aVif wish
p9503
atp9504
a(I1
(lp9505
Vif walking
p9506
aVif walk
p9507
atp9508
a(I1
(lp9509
Vif waiting
p9510
aVif wait
p9511
atp9512
a(I1
(lp9513
Vif using
p9514
aVif us
p9515
atp9516
a(I1
(lp9517
Vif trying
p9518
aVif try
p9519
atp9520
a(I1
(lp9521
Vif testing
p9522
aVif test
p9523
atp9524
a(I1
(lp9525
Vif telling
p9526
aVif tell
p9527
atp9528
a(I1
(lp9529
Vif talking
p9530
aVif talk
p9531
atp9532
a(I1
(lp9533
Vif swelling
p9534
aVif swell
p9535
atp9536
a(I1
(lp9537
Vif studying
p9538
aVif study
p9539
atp9540
a(I1
(lp9541
Vif speaking
p9542
aVif speak
p9543
atp9544
a(I1
(lp9545
Vif selling
p9546
aVif sell
p9547
atp9548
a(I1
(lp9549
Vif seeking
p9550
aVif seek
p9551
atp9552
a(I1
(lp9553
Vif searching
p9554
aVif search
p9555
atp9556
a(I1
(lp9557
Vif recalling
p9558
aVif recall
p9559
atp9560
a(I1
(lp9561
Vif possessing
p9562
aVif possess
p9563
atp9564
a(I1
(lp9565
Vif passing
p9566
aVif pass
p9567
atp9568
a(I1
(lp9569
Vif obeying
p9570
aVif obey
p9571
atp9572
a(I1
(lp9573
Vif marrying
p9574
aVif marry
p9575
atp9576
a(I1
(lp9577
Vif learning
p9578
aVif learn
p9579
atp9580
a(I1
(lp9581
Vif hoping
p9582
aVif hop
p9583
atp9584
a(I1
(lp9585
Vif hearing
p9586
aVif hear
p9587
atp9588
a(I1
(lp9589
Vif feeding
p9590
aVif feed
p9591
atp9592
a(I1
(lp9593
Vif doing
p9594
aVif do
p9595
atp9596
a(I1
(lp9597
Vif cooling
p9598
aVif cool
p9599
atp9600
a(I1
(lp9601
Vif conflicting
p9602
aVif conflict
p9603
atp9604
a(I1
(lp9605
Vif buying
p9606
aVif buy
p9607
atp9608
a(I1
(lp9609
Vif breeding
p9610
aVif breed
p9611
atp9612
a(I1
(lp9613
Vif beating
p9614
aVif beat
p9615
atp9616
a(I1
(lp9617
Vfrom yielding
p9618
aVfrom yield
p9619
atp9620
a(I1
(lp9621
Vfrom whispering
p9622
aVfrom whisper
p9623
atp9624
a(I1
(lp9625
Vfrom weeping
p9626
aVfrom weep
p9627
atp9628
a(I1
(lp9629
Vfrom wandering
p9630
aVfrom wander
p9631
atp9632
a(I1
(lp9633
Vfrom sweeping
p9634
aVfrom sweep
p9635
atp9636
a(I1
(lp9637
Vfrom swaying
p9638
aVfrom sway
p9639
atp9640
a(I1
(lp9641
Vfrom stretching
p9642
aVfrom stretch
p9643
atp9644
a(I1
(lp9645
Vfrom staying
p9646
aVfrom stay
p9647
atp9648
a(I1
(lp9649
Vfrom splashing
p9650
aVfrom splash
p9651
atp9652
a(I1
(lp9653
Vfrom speeding
p9654
aVfrom speed
p9655
atp9656
a(I1
(lp9657
Vfrom shouting
p9658
aVfrom shout
p9659
atp9660
a(I1
(lp9661
Vfrom selecting
p9662
aVfrom select
p9663
atp9664
a(I1
(lp9665
Vfrom searching
p9666
aVfrom search
p9667
atp9668
a(I1
(lp9669
Vfrom revealing
p9670
aVfrom reveal
p9671
atp9672
a(I1
(lp9673
Vfrom representing
p9674
aVfrom represent
p9675
atp9676
a(I1
(lp9677
Vfrom reporting
p9678
aVfrom report
p9679
atp9680
a(I1
(lp9681
Vfrom repeating
p9682
aVfrom repeat
p9683
atp9684
a(I1
(lp9685
Vfrom reminding
p9686
aVfrom remind
p9687
atp9688
a(I1
(lp9689
Vfrom remaining
p9690
aVfrom remain
p9691
atp9692
a(I1
(lp9693
Vfrom raging
p9694
aVfrom rag
p9695
atp9696
a(I1
(lp9697
Vfrom punishing
p9698
aVfrom punish
p9699
atp9700
a(I1
(lp9701
Vfrom publishing
p9702
aVfrom publish
p9703
atp9704
a(I1
(lp9705
Vfrom protecting
p9706
aVfrom protect
p9707
atp9708
a(I1
(lp9709
Vfrom pressing
p9710
aVfrom press
p9711
atp9712
a(I1
(lp9713
Vfrom pounding
p9714
aVfrom pound
p9715
atp9716
a(I1
(lp9717
Vfrom possessing
p9718
aVfrom possess
p9719
atp9720
a(I1
(lp9721
Vfrom ordering
p9722
aVfrom order
p9723
atp9724
a(I1
(lp9725
Vfrom offering
p9726
aVfrom offer
p9727
atp9728
a(I1
(lp9729
Vfrom obeying
p9730
aVfrom obey
p9731
atp9732
a(I1
(lp9733
Vfrom multiplying
p9734
aVfrom multiply
p9735
atp9736
a(I1
(lp9737
Vfrom mending
p9738
aVfrom mend
p9739
atp9740
a(I1
(lp9741
Vfrom loading
p9742
aVfrom load
p9743
atp9744
a(I1
(lp9745
Vfrom limiting
p9746
aVfrom limit
p9747
atp9748
a(I1
(lp9749
Vfrom lifting
p9750
aVfrom lift
p9751
atp9752
a(I1
(lp9753
Vfrom leaking
p9754
aVfrom leak
p9755
atp9756
a(I1
(lp9757
Vfrom knocking
p9758
aVfrom knock
p9759
atp9760
a(I1
(lp9761
Vfrom kissing
p9762
aVfrom kiss
p9763
atp9764
a(I1
(lp9765
Vfrom inventing
p9766
aVfrom invent
p9767
atp9768
a(I1
(lp9769
Vfrom hammering
p9770
aVfrom hammer
p9771
atp9772
a(I1
(lp9773
Vfrom growling
p9774
aVfrom growl
p9775
atp9776
a(I1
(lp9777
Vfrom galloping
p9778
aVfrom gallop
p9779
atp9780
a(I1
(lp9781
Vfrom following
p9782
aVfrom follow
p9783
atp9784
a(I1
(lp9785
Vfrom focusing
p9786
aVfrom focus
p9787
atp9788
a(I1
(lp9789
Vfrom flourishing
p9790
aVfrom flourish
p9791
atp9792
a(I1
(lp9793
Vfrom floating
p9794
aVfrom float
p9795
atp9796
a(I1
(lp9797
Vfrom filling
p9798
aVfrom fill
p9799
atp9800
a(I1
(lp9801
Vfrom explaining
p9802
aVfrom explain
p9803
atp9804
a(I1
(lp9805
Vfrom exceeding
p9806
aVfrom exceed
p9807
atp9808
a(I1
(lp9809
Vfrom drilling
p9810
aVfrom drill
p9811
atp9812
a(I1
(lp9813
Vfrom dressing
p9814
aVfrom dress
p9815
atp9816
a(I1
(lp9817
Vfrom dreaming
p9818
aVfrom dream
p9819
atp9820
a(I1
(lp9821
Vfrom drawing
p9822
aVfrom draw
p9823
atp9824
a(I1
(lp9825
Vfrom discussing
p9826
aVfrom discuss
p9827
atp9828
a(I1
(lp9829
Vfrom disappearing
p9830
aVfrom disappear
p9831
atp9832
a(I1
(lp9833
Vfrom differing
p9834
aVfrom differ
p9835
atp9836
a(I1
(lp9837
Vfrom destroying
p9838
aVfrom destroy
p9839
atp9840
a(I1
(lp9841
Vfrom descending
p9842
aVfrom descend
p9843
atp9844
a(I1
(lp9845
Vfrom delivering
p9846
aVfrom deliver
p9847
atp9848
a(I1
(lp9849
Vfrom dealing
p9850
aVfrom deal
p9851
atp9852
a(I1
(lp9853
Vfrom crushing
p9854
aVfrom crush
p9855
atp9856
a(I1
(lp9857
Vfrom crashing
p9858
aVfrom crash
p9859
atp9860
a(I1
(lp9861
Vfrom cracking
p9862
aVfrom crack
p9863
atp9864
a(I1
(lp9865
Vfrom coughing
p9866
aVfrom cough
p9867
atp9868
a(I1
(lp9869
Vfrom contracting
p9870
aVfrom contract
p9871
atp9872
a(I1
(lp9873
Vfrom considering
p9874
aVfrom consider
p9875
atp9876
a(I1
(lp9877
Vfrom clinging
p9878
aVfrom cl
p9879
atp9880
a(I1
(lp9881
Vfrom calling
p9882
aVfrom call
p9883
atp9884
a(I1
(lp9885
Vfrom breeding
p9886
aVfrom breed
p9887
atp9888
a(I1
(lp9889
Vfrom breathing
p9890
aVfrom breath
p9891
atp9892
a(I1
(lp9893
Vfrom bowing
p9894
aVfrom bow
p9895
atp9896
a(I1
(lp9897
Vfrom bothering
p9898
aVfrom bother
p9899
atp9900
a(I1
(lp9901
Vfrom bleeding
p9902
aVfrom bleed
p9903
atp9904
a(I1
(lp9905
Vfrom belonging
p9906
aVfrom belong
p9907
atp9908
a(I1
(lp9909
Vfrom awaiting
p9910
aVfrom await
p9911
atp9912
a(I1
(lp9913
Vfrom attracting
p9914
aVfrom attract
p9915
atp9916
a(I1
(lp9917
Vfrom assigning
p9918
aVfrom assign
p9919
atp9920
a(I1
(lp9921
Vfrom appealing
p9922
aVfrom appeal
p9923
atp9924
a(I1
(lp9925
Vfrom agreeing
p9926
aVfrom agree
p9927
atp9928
a(I1
(lp9929
Vfor yielding
p9930
aVfor yield
p9931
atp9932
a(I1
(lp9933
Vfor withholding
p9934
aVfor withhold
p9935
atp9936
a(I1
(lp9937
Vfor widening
p9938
aVfor widen
p9939
atp9940
a(I1
(lp9941
Vfor weighing
p9942
aVfor weigh
p9943
atp9944
a(I1
(lp9945
Vfor warning
p9946
aVfor warn
p9947
atp9948
a(I1
(lp9949
Vfor waiting
p9950
aVfor wait
p9951
atp9952
a(I1
(lp9953
Vfor unloading
p9954
aVfor unload
p9955
atp9956
a(I1
(lp9957
Vfor tying
p9958
aVfor ty
p9959
atp9960
a(I1
(lp9961
Vfor tossing
p9962
aVfor toss
p9963
atp9964
a(I1
(lp9965
Vfor swelling
p9966
aVfor swell
p9967
atp9968
a(I1
(lp9969
Vfor sweeping
p9970
aVfor sweep
p9971
atp9972
a(I1
(lp9973
Vfor sustaining
p9974
aVfor sustain
p9975
atp9976
a(I1
(lp9977
Vfor sucking
p9978
aVfor suck
p9979
atp9980
a(I1
(lp9981
Vfor succeeding
p9982
aVfor succeed
p9983
atp9984
a(I1
(lp9985
Vfor spoiling
p9986
aVfor spoil
p9987
atp9988
a(I1
(lp9989
Vfor sniffing
p9990
aVfor sniff
p9991
atp9992
a(I1
(lp9993
Vfor sliding
p9994
aVfor slid
p9995
atp9996
a(I1
(lp9997
Vfor sinking
p9998
aVfor sink
p9999
atp10000
a(I1
(lp10001
Vfor responding
p10002
aVfor respond
p10003
atp10004
a(I1
(lp10005
Vfor regarding
p10006
aVfor regard
p10007
atp10008
a(I1
(lp10009
Vfor pushing
p10010
aVfor push
p10011
atp10012
a(I1
(lp10013
Vfor preaching
p10014
aVfor preach
p10015
atp10016
a(I1
(lp10017
Vfor praying
p10018
aVfor pray
p10019
atp10020
a(I1
(lp10021
Vfor pouring
p10022
aVfor pour
p10023
atp10024
a(I1
(lp10025
Vfor picking
p10026
aVfor pick
p10027
atp10028
a(I1
(lp10029
Vfor owning
p10030
aVfor own
p10031
atp10032
a(I1
(lp10033
Vfor offering
p10034
aVfor offer
p10035
atp10036
a(I1
(lp10037
Vfor obeying
p10038
aVfor obey
p10039
atp10040
a(I1
(lp10041
Vfor modifying
p10042
aVfor modify
p10043
atp10044
a(I1
(lp10045
Vfor mending
p10046
aVfor mend
p10047
atp10048
a(I1
(lp10049
Vfor mating
p10050
aVfor mat
p10051
atp10052
a(I1
(lp10053
Vfor locking
p10054
aVfor lock
p10055
atp10056
a(I1
(lp10057
Vfor limiting
p10058
aVfor limit
p10059
atp10060
a(I1
(lp10061
Vfor lending
p10062
aVfor lend
p10063
atp10064
a(I1
(lp10065
Vfor knocking
p10066
aVfor knock
p10067
atp10068
a(I1
(lp10069
Vfor inventing
p10070
aVfor invent
p10071
atp10072
a(I1
(lp10073
Vfor inspecting
p10074
aVfor inspect
p10075
atp10076
a(I1
(lp10077
Vfor howling
p10078
aVfor howl
p10079
atp10080
a(I1
(lp10081
Vfor hoping
p10082
aVfor hop
p10083
atp10084
a(I1
(lp10085
Vfor hatching
p10086
aVfor hatch
p10087
atp10088
a(I1
(lp10089
Vfor happening
p10090
aVfor happen
p10091
atp10092
a(I1
(lp10093
Vfor hammering
p10094
aVfor hammer
p10095
atp10096
a(I1
(lp10097
Vfor guarding
p10098
aVfor guard
p10099
atp10100
a(I1
(lp10101
Vfor frying
p10102
aVfor fry
p10103
atp10104
a(I1
(lp10105
Vfor fleeing
p10106
aVfor flee
p10107
atp10108
a(I1
(lp10109
Vfor extending
p10110
aVfor extend
p10111
atp10112
a(I1
(lp10113
Vfor expecting
p10114
aVfor expect
p10115
atp10116
a(I1
(lp10117
Vfor enjoying
p10118
aVfor enjoy
p10119
atp10120
a(I1
(lp10121
Vfor drowning
p10122
aVfor drown
p10123
atp10124
a(I1
(lp10125
Vfor dreaming
p10126
aVfor dream
p10127
atp10128
a(I1
(lp10129
Vfor disappearing
p10130
aVfor disappear
p10131
atp10132
a(I1
(lp10133
Vfor demanding
p10134
aVfor demand
p10135
atp10136
a(I1
(lp10137
Vfor crushing
p10138
aVfor crush
p10139
atp10140
a(I1
(lp10141
Vfor corresponding
p10142
aVfor correspond
p10143
atp10144
a(I1
(lp10145
Vfor bumping
p10146
aVfor bump
p10147
atp10148
a(I1
(lp10149
Vfor borrowing
p10150
aVfor borrow
p10151
atp10152
a(I1
(lp10153
Vfor boiling
p10154
aVfor boil
p10155
atp10156
a(I1
(lp10157
Vfor bleeding
p10158
aVfor bleed
p10159
atp10160
a(I1
(lp10161
Vfor bending
p10162
aVfor bend
p10163
atp10164
a(I1
(lp10165
Vfor belonging
p10166
aVfor belong
p10167
atp10168
a(I1
(lp10169
Vfor attracting
p10170
aVfor attract
p10171
atp10172
a(I1
(lp10173
Vfor attempting
p10174
aVfor attempt
p10175
atp10176
a(I1
(lp10177
Vfor assisting
p10178
aVfor assist
p10179
atp10180
a(I1
(lp10181
Vfor approaching
p10182
aVfor approach
p10183
atp10184
a(I1
(lp10185
Vfor altering
p10186
aVfor alter
p10187
atp10188
a(I1
(lp10189
Vfor agreeing
p10190
aVfor agree
p10191
atp10192
a(I1
(lp10193
Vfor according
p10194
aVfor accord
p10195
atp10196
a(I1
(lp10197
Vduring turning
p10198
aVduring turn
p10199
atp10200
a(I1
(lp10201
Vduring swallowing
p10202
aVduring swallow
p10203
atp10204
a(I1
(lp10205
Vduring sharpening
p10206
aVduring sharpen
p10207
atp10208
a(I1
(lp10209
Vduring questioning
p10210
aVduring question
p10211
atp10212
a(I1
(lp10213
Vduring passing
p10214
aVduring pass
p10215
atp10216
a(I1
(lp10217
Vduring listening
p10218
aVduring listen
p10219
atp10220
a(I1
(lp10221
Vduring crossing
p10222
aVduring cross
p10223
atp10224
a(I1
(lp10225
Vdown putting
p10226
aVdown putt
p10227
atp10228
a(I1
(lp10229
Vdespite growing
p10230
aVdespite grow
p10231
atp10232
a(I1
(lp10233
Vdespite asking
p10234
aVdespite ask
p10235
atp10236
a(I1
(lp10237
Vby wanting
p10238
aVby want
p10239
atp10240
a(I1
(lp10241
Vby wailing
p10242
aVby wail
p10243
atp10244
a(I1
(lp10245
Vby viewing
p10246
aVby view
p10247
atp10248
a(I1
(lp10249
Vby thumping
p10250
aVby thump
p10251
atp10252
a(I1
(lp10253
Vby succeeding
p10254
aVby succeed
p10255
atp10256
a(I1
(lp10257
Vby stuffing
p10258
aVby stuff
p10259
atp10260
a(I1
(lp10261
Vby stooping
p10262
aVby stoop
p10263
atp10264
a(I1
(lp10265
Vby sniffing
p10266
aVby sniff
p10267
atp10268
a(I1
(lp10269
Vby sinking
p10270
aVby sink
p10271
atp10272
a(I1
(lp10273
Vby shrinking
p10274
aVby shrink
p10275
atp10276
a(I1
(lp10277
Vby sealing
p10278
aVby seal
p10279
atp10280
a(I1
(lp10281
Vby roasting
p10282
aVby roast
p10283
atp10284
a(I1
(lp10285
Vby roaming
p10286
aVby roam
p10287
atp10288
a(I1
(lp10289
Vby revealing
p10290
aVby reveal
p10291
atp10292
a(I1
(lp10293
Vby retreating
p10294
aVby retreat
p10295
atp10296
a(I1
(lp10297
Vby resting
p10298
aVby rest
p10299
atp10300
a(I1
(lp10301
Vby reminding
p10302
aVby remind
p10303
atp10304
a(I1
(lp10305
Vby reflecting
p10306
aVby reflect
p10307
atp10308
a(I1
(lp10309
Vby recruiting
p10310
aVby recruit
p10311
atp10312
a(I1
(lp10313
Vby questioning
p10314
aVby question
p10315
atp10316
a(I1
(lp10317
Vby punching
p10318
aVby punch
p10319
atp10320
a(I1
(lp10321
Vby puffing
p10322
aVby puff
p10323
atp10324
a(I1
(lp10325
Vby proceeding
p10326
aVby proceed
p10327
atp10328
a(I1
(lp10329
Vby prevailing
p10330
aVby prevail
p10331
atp10332
a(I1
(lp10333
Vby polishing
p10334
aVby polish
p10335
atp10336
a(I1
(lp10337
Vby pitching
p10338
aVby pitch
p10339
atp10340
a(I1
(lp10341
Vby overlooking
p10342
aVby overlook
p10343
atp10344
a(I1
(lp10345
Vby occupying
p10346
aVby occupy
p10347
atp10348
a(I1
(lp10349
Vby locking
p10350
aVby lock
p10351
atp10352
a(I1
(lp10353
Vby lobbying
p10354
aVby lobby
p10355
atp10356
a(I1
(lp10357
Vby knocking
p10358
aVby knock
p10359
atp10360
a(I1
(lp10361
Vby interrupting
p10362
aVby interrupt
p10363
atp10364
a(I1
(lp10365
Vby implementing
p10366
aVby implement
p10367
atp10368
a(I1
(lp10369
Vby hoping
p10370
aVby hop
p10371
atp10372
a(I1
(lp10373
Vby hiding
p10374
aVby hid
p10375
atp10376
a(I1
(lp10377
Vby guarding
p10378
aVby guard
p10379
atp10380
a(I1
(lp10381
Vby governing
p10382
aVby govern
p10383
atp10384
a(I1
(lp10385
Vby fulfilling
p10386
aVby fulfill
p10387
atp10388
a(I1
(lp10389
Vby frying
p10390
aVby fry
p10391
atp10392
a(I1
(lp10393
Vby exporting
p10394
aVby export
p10395
atp10396
a(I1
(lp10397
Vby expecting
p10398
aVby expect
p10399
atp10400
a(I1
(lp10401
Vby expanding
p10402
aVby expand
p10403
atp10404
a(I1
(lp10405
Vby exceeding
p10406
aVby exceed
p10407
atp10408
a(I1
(lp10409
Vby enjoying
p10410
aVby enjoy
p10411
atp10412
a(I1
(lp10413
Vby disappearing
p10414
aVby disappear
p10415
atp10416
a(I1
(lp10417
Vby dining
p10418
aVby din
p10419
atp10420
a(I1
(lp10421
Vby depending
p10422
aVby depend
p10423
atp10424
a(I1
(lp10425
Vby dashing
p10426
aVby dash
p10427
atp10428
a(I1
(lp10429
Vby curling
p10430
aVby curl
p10431
atp10432
a(I1
(lp10433
Vby creeping
p10434
aVby creep
p10435
atp10436
a(I1
(lp10437
Vby cracking
p10438
aVby crack
p10439
atp10440
a(I1
(lp10441
Vby coughing
p10442
aVby cough
p10443
atp10444
a(I1
(lp10445
Vby correcting
p10446
aVby correct
p10447
atp10448
a(I1
(lp10449
Vby containing
p10450
aVby contain
p10451
atp10452
a(I1
(lp10453
Vby constructing
p10454
aVby construct
p10455
atp10456
a(I1
(lp10457
Vby commanding
p10458
aVby command
p10459
atp10460
a(I1
(lp10461
Vby clinging
p10462
aVby cl
p10463
atp10464
a(I1
(lp10465
Vby buzzing
p10466
aVby buzz
p10467
atp10468
a(I1
(lp10469
Vby bleeding
p10470
aVby bleed
p10471
atp10472
a(I1
(lp10473
Vby approaching
p10474
aVby approach
p10475
atp10476
a(I1
(lp10477
Vby administering
p10478
aVby administer
p10479
atp10480
a(I1
(lp10481
Vby adapting
p10482
aVby adapt
p10483
atp10484
a(I1
(lp10485
Vbeyond telling
p10486
aVbeyond tell
p10487
atp10488
a(I1
(lp10489
Vbeyond showing
p10490
aVbeyond show
p10491
atp10492
a(I1
(lp10493
Vbeyond satisfying
p10494
aVbeyond satisfy
p10495
atp10496
a(I1
(lp10497
Vbeyond reporting
p10498
aVbeyond report
p10499
atp10500
a(I1
(lp10501
Vbeyond identifying
p10502
aVbeyond identify
p10503
atp10504
a(I1
(lp10505
Vbeyond crying
p10506
aVbeyond cry
p10507
atp10508
a(I1
(lp10509
Vbeyond casting
p10510
aVbeyond cast
p10511
atp10512
a(I1
(lp10513
Vbeyond adding
p10514
aVbeyond add
p10515
atp10516
a(I1
(lp10517
Vbetween wanting
p10518
aVbetween want
p10519
atp10520
a(I1
(lp10521
Vbetween turning
p10522
aVbetween turn
p10523
atp10524
a(I1
(lp10525
Vbetween staying
p10526
aVbetween stay
p10527
atp10528
a(I1
(lp10529
Vbetween seeking
p10530
aVbetween seek
p10531
atp10532
a(I1
(lp10533
Vbetween seeing
p10534
aVbetween see
p10535
atp10536
a(I1
(lp10537
Vbetween reacting
p10538
aVbetween react
p10539
atp10540
a(I1
(lp10541
Vbetween performing
p10542
aVbetween perform
p10543
atp10544
a(I1
(lp10545
Vbetween maintaining
p10546
aVbetween maintain
p10547
atp10548
a(I1
(lp10549
Vbetween losing
p10550
aVbetween los
p10551
atp10552
a(I1
(lp10553
Vbetween going
p10554
aVbetween go
p10555
atp10556
a(I1
(lp10557
Vbetween crossing
p10558
aVbetween cross
p10559
atp10560
a(I1
(lp10561
Vbetween collecting
p10562
aVbetween collect
p10563
atp10564
a(I1
(lp10565
Vbetween chattering
p10566
aVbetween chatter
p10567
atp10568
a(I1
(lp10569
Vbetween changing
p10570
aVbetween chang
p10571
atp10572
a(I1
(lp10573
Vbetween attacking
p10574
aVbetween attack
p10575
atp10576
a(I1
(lp10577
Vbetween applying
p10578
aVbetween apply
p10579
atp10580
a(I1
(lp10581
Vbesides watching
p10582
aVbesides watch
p10583
atp10584
a(I1
(lp10585
Vbesides telling
p10586
aVbesides tell
p10587
atp10588
a(I1
(lp10589
Vbesides studying
p10590
aVbesides study
p10591
atp10592
a(I1
(lp10593
Vbesides spoiling
p10594
aVbesides spoil
p10595
atp10596
a(I1
(lp10597
Vbesides reporting
p10598
aVbesides report
p10599
atp10600
a(I1
(lp10601
Vbesides protecting
p10602
aVbesides protect
p10603
atp10604
a(I1
(lp10605
Vbesides offering
p10606
aVbesides offer
p10607
atp10608
a(I1
(lp10609
Vbesides obtaining
p10610
aVbesides obtain
p10611
atp10612
a(I1
(lp10613
Vbesides lifting
p10614
aVbesides lift
p10615
atp10616
a(I1
(lp10617
Vbesides learning
p10618
aVbesides learn
p10619
atp10620
a(I1
(lp10621
Vbesides inventing
p10622
aVbesides invent
p10623
atp10624
a(I1
(lp10625
Vbesides growing
p10626
aVbesides grow
p10627
atp10628
a(I1
(lp10629
Vbesides gaining
p10630
aVbesides gain
p10631
atp10632
a(I1
(lp10633
Vbesides differing
p10634
aVbesides differ
p10635
atp10636
a(I1
(lp10637
Vbesides chewing
p10638
aVbesides chew
p10639
atp10640
a(I1
(lp10641
Vbesides changing
p10642
aVbesides chang
p10643
atp10644
a(I1
(lp10645
Vbesides buying
p10646
aVbesides buy
p10647
atp10648
a(I1
(lp10649
Vbesides allowing
p10650
aVbesides allow
p10651
atp10652
a(I1
(lp10653
Vbeneath howling
p10654
aVbeneath howl
p10655
atp10656
a(I1
(lp10657
Vbelow depending
p10658
aVbelow depend
p10659
atp10660
a(I1
(lp10661
Vbehind burning
p10662
aVbehind burn
p10663
atp10664
a(I1
(lp10665
Vbefore washing
p10666
aVbefore wash
p10667
atp10668
a(I1
(lp10669
Vbefore walking
p10670
aVbefore walk
p10671
atp10672
a(I1
(lp10673
Vbefore visiting
p10674
aVbefore visit
p10675
atp10676
a(I1
(lp10677
Vbefore viewing
p10678
aVbefore view
p10679
atp10680
a(I1
(lp10681
Vbefore understanding
p10682
aVbefore understand
p10683
atp10684
a(I1
(lp10685
Vbefore tying
p10686
aVbefore ty
p10687
atp10688
a(I1
(lp10689
Vbefore traveling
p10690
aVbefore travel
p10691
atp10692
a(I1
(lp10693
Vbefore testing
p10694
aVbefore test
p10695
atp10696
a(I1
(lp10697
Vbefore talking
p10698
aVbefore talk
p10699
atp10700
a(I1
(lp10701
Vbefore succeeding
p10702
aVbefore succeed
p10703
atp10704
a(I1
(lp10705
Vbefore steering
p10706
aVbefore steer
p10707
atp10708
a(I1
(lp10709
Vbefore spreading
p10710
aVbefore spread
p10711
atp10712
a(I1
(lp10713
Vbefore spraying
p10714
aVbefore spray
p10715
atp10716
a(I1
(lp10717
Vbefore speaking
p10718
aVbefore speak
p10719
atp10720
a(I1
(lp10721
Vbefore sinking
p10722
aVbefore sink
p10723
atp10724
a(I1
(lp10725
Vbefore rushing
p10726
aVbefore rush
p10727
atp10728
a(I1
(lp10729
Vbefore rounding
p10730
aVbefore round
p10731
atp10732
a(I1
(lp10733
Vbefore ringing
p10734
aVbefore r
p10735
atp10736
a(I1
(lp10737
Vbefore riding
p10738
aVbefore rid
p10739
atp10740
a(I1
(lp10741
Vbefore relying
p10742
aVbefore rely
p10743
atp10744
a(I1
(lp10745
Vbefore relaxing
p10746
aVbefore relax
p10747
atp10748
a(I1
(lp10749
Vbefore pushing
p10750
aVbefore push
p10751
atp10752
a(I1
(lp10753
Vbefore pulling
p10754
aVbefore pull
p10755
atp10756
a(I1
(lp10757
Vbefore pouring
p10758
aVbefore pour
p10759
atp10760
a(I1
(lp10761
Vbefore posting
p10762
aVbefore post
p10763
atp10764
a(I1
(lp10765
Vbefore paying
p10766
aVbefore pay
p10767
atp10768
a(I1
(lp10769
Vbefore ordering
p10770
aVbefore order
p10771
atp10772
a(I1
(lp10773
Vbefore offering
p10774
aVbefore offer
p10775
atp10776
a(I1
(lp10777
Vbefore meeting
p10778
aVbefore meet
p10779
atp10780
a(I1
(lp10781
Vbefore mailing
p10782
aVbefore mail
p10783
atp10784
a(I1
(lp10785
Vbefore lifting
p10786
aVbefore lift
p10787
atp10788
a(I1
(lp10789
Vbefore leading
p10790
aVbefore lead
p10791
atp10792
a(I1
(lp10793
Vbefore landing
p10794
aVbefore land
p10795
atp10796
a(I1
(lp10797
Vbefore knocking
p10798
aVbefore knock
p10799
atp10800
a(I1
(lp10801
Vbefore joining
p10802
aVbefore join
p10803
atp10804
a(I1
(lp10805
Vbefore investing
p10806
aVbefore invest
p10807
atp10808
a(I1
(lp10809
Vbefore inventing
p10810
aVbefore invent
p10811
atp10812
a(I1
(lp10813
Vbefore hurrying
p10814
aVbefore hurry
p10815
atp10816
a(I1
(lp10817
Vbefore hatching
p10818
aVbefore hatch
p10819
atp10820
a(I1
(lp10821
Vbefore grinding
p10822
aVbefore grind
p10823
atp10824
a(I1
(lp10825
Vbefore gaining
p10826
aVbefore gain
p10827
atp10828
a(I1
(lp10829
Vbefore founding
p10830
aVbefore found
p10831
atp10832
a(I1
(lp10833
Vbefore forecasting
p10834
aVbefore forecast
p10835
atp10836
a(I1
(lp10837
Vbefore focusing
p10838
aVbefore focus
p10839
atp10840
a(I1
(lp10841
Vbefore flying
p10842
aVbefore fly
p10843
atp10844
a(I1
(lp10845
Vbefore flowing
p10846
aVbefore flow
p10847
atp10848
a(I1
(lp10849
Vbefore filling
p10850
aVbefore fill
p10851
atp10852
a(I1
(lp10853
Vbefore falling
p10854
aVbefore fall
p10855
atp10856
a(I1
(lp10857
Vbefore dumping
p10858
aVbefore dump
p10859
atp10860
a(I1
(lp10861
Vbefore drifting
p10862
aVbefore drift
p10863
atp10864
a(I1
(lp10865
Vbefore dressing
p10866
aVbefore dress
p10867
atp10868
a(I1
(lp10869
Vbefore destroying
p10870
aVbefore destroy
p10871
atp10872
a(I1
(lp10873
Vbefore depressing
p10874
aVbefore depress
p10875
atp10876
a(I1
(lp10877
Vbefore delivering
p10878
aVbefore deliver
p10879
atp10880
a(I1
(lp10881
Vbefore cooling
p10882
aVbefore cool
p10883
atp10884
a(I1
(lp10885
Vbefore climbing
p10886
aVbefore climb
p10887
atp10888
a(I1
(lp10889
Vbefore camping
p10890
aVbefore camp
p10891
atp10892
a(I1
(lp10893
Vbefore breaking
p10894
aVbefore break
p10895
atp10896
a(I1
(lp10897
Vbefore boarding
p10898
aVbefore board
p10899
atp10900
a(I1
(lp10901
Vbefore attending
p10902
aVbefore attend
p10903
atp10904
a(I1
(lp10905
Vbefore allowing
p10906
aVbefore allow
p10907
atp10908
a(I1
(lp10909
Vbefore aiming
p10910
aVbefore aim
p10911
atp10912
a(I1
(lp10913
Vbefore adjusting
p10914
aVbefore adjust
p10915
atp10916
a(I1
(lp10917
Vbefore acting
p10918
aVbefore act
p10919
atp10920
a(I1
(lp10921
Vbecause weathering
p10922
aVbecause weather
p10923
atp10924
a(I1
(lp10925
Vbecause telling
p10926
aVbecause tell
p10927
atp10928
a(I1
(lp10929
Vbecause riding
p10930
aVbecause rid
p10931
atp10932
a(I1
(lp10933
Vbecause relaxing
p10934
aVbecause relax
p10935
atp10936
a(I1
(lp10937
Vbecause preventing
p10938
aVbecause prevent
p10939
atp10940
a(I1
(lp10941
Vbecause prevailing
p10942
aVbecause prevail
p10943
atp10944
a(I1
(lp10945
Vbecause posting
p10946
aVbecause post
p10947
atp10948
a(I1
(lp10949
Vbecause maintaining
p10950
aVbecause maintain
p10951
atp10952
a(I1
(lp10953
Vbecause knowing
p10954
aVbecause know
p10955
atp10956
a(I1
(lp10957
Vbecause falling
p10958
aVbecause fall
p10959
atp10960
a(I1
(lp10961
Vbecause drawing
p10962
aVbecause draw
p10963
atp10964
a(I1
(lp10965
Vbecause doing
p10966
aVbecause do
p10967
atp10968
a(I1
(lp10969
Vbecause developing
p10970
aVbecause develop
p10971
atp10972
a(I1
(lp10973
Vbecause caring
p10974
aVbecause car
p10975
atp10976
a(I1
(lp10977
Vbecause breaking
p10978
aVbecause break
p10979
atp10980
a(I1
(lp10981
Vbecause according
p10982
aVbecause accord
p10983
atp10984
a(I1
(lp10985
Vat winding
p10986
aVat wind
p10987
atp10988
a(I1
(lp10989
Vat watching
p10990
aVat watch
p10991
atp10992
a(I1
(lp10993
Vat waiting
p10994
aVat wait
p10995
atp10996
a(I1
(lp10997
Vat turning
p10998
aVat turn
p10999
atp11000
a(I1
(lp11001
Vat treating
p11002
aVat treat
p11003
atp11004
a(I1
(lp11005
Vat transporting
p11006
aVat transport
p11007
atp11008
a(I1
(lp11009
Vat thinking
p11010
aVat think
p11011
atp11012
a(I1
(lp11013
Vat telling
p11014
aVat tell
p11015
atp11016
a(I1
(lp11017
Vat talking
p11018
aVat talk
p11019
atp11020
a(I1
(lp11021
Vat supplying
p11022
aVat supply
p11023
atp11024
a(I1
(lp11025
Vat stretching
p11026
aVat stretch
p11027
atp11028
a(I1
(lp11029
Vat stealing
p11030
aVat steal
p11031
atp11032
a(I1
(lp11033
Vat staying
p11034
aVat stay
p11035
atp11036
a(I1
(lp11037
Vat sewing
p11038
aVat sew
p11039
atp11040
a(I1
(lp11041
Vat satisfying
p11042
aVat satisfy
p11043
atp11044
a(I1
(lp11045
Vat rolling
p11046
aVat roll
p11047
atp11048
a(I1
(lp11049
Vat riding
p11050
aVat rid
p11051
atp11052
a(I1
(lp11053
Vat revealing
p11054
aVat reveal
p11055
atp11056
a(I1
(lp11057
Vat returning
p11058
aVat return
p11059
atp11060
a(I1
(lp11061
Vat remembering
p11062
aVat remember
p11063
atp11064
a(I1
(lp11065
Vat recording
p11066
aVat record
p11067
atp11068
a(I1
(lp11069
Vat pulling
p11070
aVat pull
p11071
atp11072
a(I1
(lp11073
Vat pretending
p11074
aVat pretend
p11075
atp11076
a(I1
(lp11077
Vat predicting
p11078
aVat predict
p11079
atp11080
a(I1
(lp11081
Vat performing
p11082
aVat perform
p11083
atp11084
a(I1
(lp11085
Vat passing
p11086
aVat pass
p11087
atp11088
a(I1
(lp11089
Vat obtaining
p11090
aVat obtain
p11091
atp11092
a(I1
(lp11093
Vat neighboring
p11094
aVat neighbor
p11095
atp11096
a(I1
(lp11097
Vat mocking
p11098
aVat mock
p11099
atp11100
a(I1
(lp11101
Vat minding
p11102
aVat mind
p11103
atp11104
a(I1
(lp11105
Vat limiting
p11106
aVat limit
p11107
atp11108
a(I1
(lp11109
Vat leading
p11110
aVat lead
p11111
atp11112
a(I1
(lp11113
Vat laying
p11114
aVat lay
p11115
atp11116
a(I1
(lp11117
Vat knowing
p11118
aVat know
p11119
atp11120
a(I1
(lp11121
Vat knocking
p11122
aVat knock
p11123
atp11124
a(I1
(lp11125
Vat joining
p11126
aVat join
p11127
atp11128
a(I1
(lp11129
Vat inventing
p11130
aVat invent
p11131
atp11132
a(I1
(lp11133
Vat hearing
p11134
aVat hear
p11135
atp11136
a(I1
(lp11137
Vat going
p11138
aVat go
p11139
atp11140
a(I1
(lp11141
Vat following
p11142
aVat follow
p11143
atp11144
a(I1
(lp11145
Vat dressing
p11146
aVat dress
p11147
atp11148
a(I1
(lp11149
Vat disturbing
p11150
aVat disturb
p11151
atp11152
a(I1
(lp11153
Vat corresponding
p11154
aVat correspond
p11155
atp11156
a(I1
(lp11157
Vat containing
p11158
aVat contain
p11159
atp11160
a(I1
(lp11161
Vat broadcasting
p11162
aVat broadcast
p11163
atp11164
a(I1
(lp11165
Vat breeding
p11166
aVat breed
p11167
atp11168
a(I1
(lp11169
Vat blocking
p11170
aVat block
p11171
atp11172
a(I1
(lp11173
Vat assisting
p11174
aVat assist
p11175
atp11176
a(I1
(lp11177
Vat appearing
p11178
aVat appear
p11179
atp11180
a(I1
(lp11181
Vat allowing
p11182
aVat allow
p11183
atp11184
a(I1
(lp11185
Vat adding
p11186
aVat add
p11187
atp11188
a(I1
(lp11189
Vat according
p11190
aVat accord
p11191
atp11192
a(I1
(lp11193
Vat absorbing
p11194
aVat absorb
p11195
atp11196
a(I1
(lp11197
Vas worrying
p11198
aVas worry
p11199
atp11200
a(I1
(lp11201
Vas watching
p11202
aVas watch
p11203
atp11204
a(I1
(lp11205
Vas wandering
p11206
aVas wander
p11207
atp11208
a(I1
(lp11209
Vas varying
p11210
aVas vary
p11211
atp11212
a(I1
(lp11213
Vas touching
p11214
aVas touch
p11215
atp11216
a(I1
(lp11217
Vas suggesting
p11218
aVas suggest
p11219
atp11220
a(I1
(lp11221
Vas stealing
p11222
aVas steal
p11223
atp11224
a(I1
(lp11225
Vas staying
p11226
aVas stay
p11227
atp11228
a(I1
(lp11229
Vas spending
p11230
aVas spend
p11231
atp11232
a(I1
(lp11233
Vas sending
p11234
aVas send
p11235
atp11236
a(I1
(lp11237
Vas selling
p11238
aVas sell
p11239
atp11240
a(I1
(lp11241
Vas selecting
p11242
aVas select
p11243
atp11244
a(I1
(lp11245
Vas sealing
p11246
aVas seal
p11247
atp11248
a(I1
(lp11249
Vas scratching
p11250
aVas scratch
p11251
atp11252
a(I1
(lp11253
Vas rushing
p11254
aVas rush
p11255
atp11256
a(I1
(lp11257
Vas remaining
p11258
aVas remain
p11259
atp11260
a(I1
(lp11261
Vas rejecting
p11262
aVas reject
p11263
atp11264
a(I1
(lp11265
Vas reflecting
p11266
aVas reflect
p11267
atp11268
a(I1
(lp11269
Vas reaching
p11270
aVas reach
p11271
atp11272
a(I1
(lp11273
Vas pulling
p11274
aVas pull
p11275
atp11276
a(I1
(lp11277
Vas prohibiting
p11278
aVas prohibit
p11279
atp11280
a(I1
(lp11281
Vas possessing
p11282
aVas possess
p11283
atp11284
a(I1
(lp11285
Vas owning
p11286
aVas own
p11287
atp11288
a(I1
(lp11289
Vas ordering
p11290
aVas order
p11291
atp11292
a(I1
(lp11293
Vas orbiting
p11294
aVas orbit
p11295
atp11296
a(I1
(lp11297
Vas obeying
p11298
aVas obey
p11299
atp11300
a(I1
(lp11301
Vas modifying
p11302
aVas modify
p11303
atp11304
a(I1
(lp11305
Vas mending
p11306
aVas mend
p11307
atp11308
a(I1
(lp11309
Vas matching
p11310
aVas match
p11311
atp11312
a(I1
(lp11313
Vas locking
p11314
aVas lock
p11315
atp11316
a(I1
(lp11317
Vas lining
p11318
aVas lin
p11319
atp11320
a(I1
(lp11321
Vas kicking
p11322
aVas kick
p11323
atp11324
a(I1
(lp11325
Vas installing
p11326
aVas install
p11327
atp11328
a(I1
(lp11329
Vas hurrying
p11330
aVas hurry
p11331
atp11332
a(I1
(lp11333
Vas hauling
p11334
aVas haul
p11335
atp11336
a(I1
(lp11337
Vas hanging
p11338
aVas hang
p11339
atp11340
a(I1
(lp11341
Vas greeting
p11342
aVas greet
p11343
atp11344
a(I1
(lp11345
Vas grasping
p11346
aVas grasp
p11347
atp11348
a(I1
(lp11349
Vas flowing
p11350
aVas flow
p11351
atp11352
a(I1
(lp11353
Vas fleeing
p11354
aVas flee
p11355
atp11356
a(I1
(lp11357
Vas filling
p11358
aVas fill
p11359
atp11360
a(I1
(lp11361
Vas explaining
p11362
aVas explain
p11363
atp11364
a(I1
(lp11365
Vas drowning
p11366
aVas drown
p11367
atp11368
a(I1
(lp11369
Vas drilling
p11370
aVas drill
p11371
atp11372
a(I1
(lp11373
Vas dreaming
p11374
aVas dream
p11375
atp11376
a(I1
(lp11377
Vas destroying
p11378
aVas destroy
p11379
atp11380
a(I1
(lp11381
Vas crying
p11382
aVas cry
p11383
atp11384
a(I1
(lp11385
Vas covering
p11386
aVas cover
p11387
atp11388
a(I1
(lp11389
Vas constructing
p11390
aVas construct
p11391
atp11392
a(I1
(lp11393
Vas conducting
p11394
aVas conduct
p11395
atp11396
a(I1
(lp11397
Vas collecting
p11398
aVas collect
p11399
atp11400
a(I1
(lp11401
Vas chewing
p11402
aVas chew
p11403
atp11404
a(I1
(lp11405
Vas carrying
p11406
aVas carry
p11407
atp11408
a(I1
(lp11409
Vas beating
p11410
aVas beat
p11411
atp11412
a(I1
(lp11413
Vas altering
p11414
aVas alter
p11415
atp11416
a(I1
(lp11417
Vas allowing
p11418
aVas allow
p11419
atp11420
a(I1
(lp11421
Varound threatening
p11422
aVaround threaten
p11423
atp11424
a(I1
(lp11425
Varound talking
p11426
aVaround talk
p11427
atp11428
a(I1
(lp11429
Varound shouting
p11430
aVaround shout
p11431
atp11432
a(I1
(lp11433
Varound selling
p11434
aVaround sell
p11435
atp11436
a(I1
(lp11437
Varound seeking
p11438
aVaround seek
p11439
atp11440
a(I1
(lp11441
Varound seeing
p11442
aVaround see
p11443
atp11444
a(I1
(lp11445
Varound screaming
p11446
aVaround scream
p11447
atp11448
a(I1
(lp11449
Varound punching
p11450
aVaround punch
p11451
atp11452
a(I1
(lp11453
Varound planting
p11454
aVaround plant
p11455
atp11456
a(I1
(lp11457
Varound licking
p11458
aVaround lick
p11459
atp11460
a(I1
(lp11461
Varound knowing
p11462
aVaround know
p11463
atp11464
a(I1
(lp11465
Varound interacting
p11466
aVaround interact
p11467
atp11468
a(I1
(lp11469
Varound eating
p11470
aVaround eat
p11471
atp11472
a(I1
(lp11473
Varound decaying
p11474
aVaround decay
p11475
atp11476
a(I1
(lp11477
Varound cracking
p11478
aVaround crack
p11479
atp11480
a(I1
(lp11481
Varound collecting
p11482
aVaround collect
p11483
atp11484
a(I1
(lp11485
Varound calling
p11486
aVaround call
p11487
atp11488
a(I1
(lp11489
Varound barking
p11490
aVaround bark
p11491
atp11492
a(I1
(lp11493
Varound asking
p11494
aVaround ask
p11495
atp11496
a(I1
(lp11497
Varound according
p11498
aVaround accord
p11499
atp11500
a(I1
(lp11501
Vamong rolling
p11502
aVamong roll
p11503
atp11504
a(I1
(lp11505
Vamong existing
p11506
aVamong exist
p11507
atp11508
a(I1
(lp11509
Vamong conflicting
p11510
aVamong conflict
p11511
atp11512
a(I1
(lp11513
Valthough varying
p11514
aValthough vary
p11515
atp11516
a(I1
(lp11517
Valthough suffering
p11518
aValthough suffer
p11519
atp11520
a(I1
(lp11521
Valthough performing
p11522
aValthough perform
p11523
atp11524
a(I1
(lp11525
Valthough learning
p11526
aValthough learn
p11527
atp11528
a(I1
(lp11529
Valthough falling
p11530
aValthough fall
p11531
atp11532
a(I1
(lp11533
Valthough constructing
p11534
aValthough construct
p11535
atp11536
a(I1
(lp11537
Valthough changing
p11538
aValthough chang
p11539
atp11540
a(I1
(lp11541
Valong walking
p11542
aValong walk
p11543
atp11544
a(I1
(lp11545
Valong using
p11546
aValong us
p11547
atp11548
a(I1
(lp11549
Valong trying
p11550
aValong try
p11551
atp11552
a(I1
(lp11553
Valong playing
p11554
aValong play
p11555
atp11556
a(I1
(lp11557
Valong looking
p11558
aValong look
p11559
atp11560
a(I1
(lp11561
Valong leaning
p11562
aValong lean
p11563
atp11564
a(I1
(lp11565
Valong delivering
p11566
aValong deliver
p11567
atp11568
a(I1
(lp11569
Vago using
p11570
aVago us
p11571
atp11572
a(I1
(lp11573
Vagainst working
p11574
aVagainst work
p11575
atp11576
a(I1
(lp11577
Vagainst uniting
p11578
aVagainst unit
p11579
atp11580
a(I1
(lp11581
Vagainst telling
p11582
aVagainst tell
p11583
atp11584
a(I1
(lp11585
Vagainst selling
p11586
aVagainst sell
p11587
atp11588
a(I1
(lp11589
Vagainst protecting
p11590
aVagainst protect
p11591
atp11592
a(I1
(lp11593
Vagainst playing
p11594
aVagainst play
p11595
atp11596
a(I1
(lp11597
Vagainst picking
p11598
aVagainst pick
p11599
atp11600
a(I1
(lp11601
Vagainst losing
p11602
aVagainst los
p11603
atp11604
a(I1
(lp11605
Vagainst interviewing
p11606
aVagainst interview
p11607
atp11608
a(I1
(lp11609
Vagainst going
p11610
aVagainst go
p11611
atp11612
a(I1
(lp11613
Vagainst flying
p11614
aVagainst fly
p11615
atp11616
a(I1
(lp11617
Vagainst extending
p11618
aVagainst extend
p11619
atp11620
a(I1
(lp11621
Vagainst existing
p11622
aVagainst exist
p11623
atp11624
a(I1
(lp11625
Vagainst entering
p11626
aVagainst enter
p11627
atp11628
a(I1
(lp11629
Vagainst dumping
p11630
aVagainst dump
p11631
atp11632
a(I1
(lp11633
Vagainst drying
p11634
aVagainst dry
p11635
atp11636
a(I1
(lp11637
Vagainst drawing
p11638
aVagainst draw
p11639
atp11640
a(I1
(lp11641
Vagainst disturbing
p11642
aVagainst disturb
p11643
atp11644
a(I1
(lp11645
Vagainst demanding
p11646
aVagainst demand
p11647
atp11648
a(I1
(lp11649
Vagainst attempting
p11650
aVagainst attempt
p11651
atp11652
a(I1
(lp11653
Vagainst allowing
p11654
aVagainst allow
p11655
atp11656
a(I1
(lp11657
Vagainst accepting
p11658
aVagainst accept
p11659
atp11660
a(I1
(lp11661
Vafter withholding
p11662
aVafter withhold
p11663
atp11664
a(I1
(lp11665
Vafter winding
p11666
aVafter wind
p11667
atp11668
a(I1
(lp11669
Vafter washing
p11670
aVafter wash
p11671
atp11672
a(I1
(lp11673
Vafter viewing
p11674
aVafter view
p11675
atp11676
a(I1
(lp11677
Vafter turning
p11678
aVafter turn
p11679
atp11680
a(I1
(lp11681
Vafter touching
p11682
aVafter touch
p11683
atp11684
a(I1
(lp11685
Vafter throwing
p11686
aVafter throw
p11687
atp11688
a(I1
(lp11689
Vafter threatening
p11690
aVafter threaten
p11691
atp11692
a(I1
(lp11693
Vafter telling
p11694
aVafter tell
p11695
atp11696
a(I1
(lp11697
Vafter suffering
p11698
aVafter suffer
p11699
atp11700
a(I1
(lp11701
Vafter stretching
p11702
aVafter stretch
p11703
atp11704
a(I1
(lp11705
Vafter sticking
p11706
aVafter stick
p11707
atp11708
a(I1
(lp11709
Vafter staying
p11710
aVafter stay
p11711
atp11712
a(I1
(lp11713
Vafter staring
p11714
aVafter star
p11715
atp11716
a(I1
(lp11717
Vafter soaking
p11718
aVafter soak
p11719
atp11720
a(I1
(lp11721
Vafter sniffing
p11722
aVafter sniff
p11723
atp11724
a(I1
(lp11725
Vafter sketching
p11726
aVafter sketch
p11727
atp11728
a(I1
(lp11729
Vafter singing
p11730
aVafter s
p11731
atp11732
a(I1
(lp11733
Vafter showing
p11734
aVafter show
p11735
atp11736
a(I1
(lp11737
Vafter searching
p11738
aVafter search
p11739
atp11740
a(I1
(lp11741
Vafter scratching
p11742
aVafter scratch
p11743
atp11744
a(I1
(lp11745
Vafter satisfying
p11746
aVafter satisfy
p11747
atp11748
a(I1
(lp11749
Vafter sailing
p11750
aVafter sail
p11751
atp11752
a(I1
(lp11753
Vafter repeating
p11754
aVafter repeat
p11755
atp11756
a(I1
(lp11757
Vafter relaxing
p11758
aVafter relax
p11759
atp11760
a(I1
(lp11761
Vafter prevailing
p11762
aVafter prevail
p11763
atp11764
a(I1
(lp11765
Vafter packing
p11766
aVafter pack
p11767
atp11768
a(I1
(lp11769
Vafter occupying
p11770
aVafter occupy
p11771
atp11772
a(I1
(lp11773
Vafter matching
p11774
aVafter match
p11775
atp11776
a(I1
(lp11777
Vafter marching
p11778
aVafter march
p11779
atp11780
a(I1
(lp11781
Vafter maintaining
p11782
aVafter maintain
p11783
atp11784
a(I1
(lp11785
Vafter locking
p11786
aVafter lock
p11787
atp11788
a(I1
(lp11789
Vafter listing
p11790
aVafter list
p11791
atp11792
a(I1
(lp11793
Vafter leveling
p11794
aVafter level
p11795
atp11796
a(I1
(lp11797
Vafter knocking
p11798
aVafter knock
p11799
atp11800
a(I1
(lp11801
Vafter kissing
p11802
aVafter kiss
p11803
atp11804
a(I1
(lp11805
Vafter killing
p11806
aVafter kill
p11807
atp11808
a(I1
(lp11809
Vafter jumping
p11810
aVafter jump
p11811
atp11812
a(I1
(lp11813
Vafter interviewing
p11814
aVafter interview
p11815
atp11816
a(I1
(lp11817
Vafter informing
p11818
aVafter inform
p11819
atp11820
a(I1
(lp11821
Vafter holding
p11822
aVafter hold
p11823
atp11824
a(I1
(lp11825
Vafter hanging
p11826
aVafter hang
p11827
atp11828
a(I1
(lp11829
Vafter growing
p11830
aVafter grow
p11831
atp11832
a(I1
(lp11833
Vafter galloping
p11834
aVafter gallop
p11835
atp11836
a(I1
(lp11837
Vafter following
p11838
aVafter follow
p11839
atp11840
a(I1
(lp11841
Vafter floating
p11842
aVafter float
p11843
atp11844
a(I1
(lp11845
Vafter feeling
p11846
aVafter feel
p11847
atp11848
a(I1
(lp11849
Vafter expressing
p11850
aVafter express
p11851
atp11852
a(I1
(lp11853
Vafter explaining
p11854
aVafter explain
p11855
atp11856
a(I1
(lp11857
Vafter experimenting
p11858
aVafter experiment
p11859
atp11860
a(I1
(lp11861
Vafter dressing
p11862
aVafter dress
p11863
atp11864
a(I1
(lp11865
Vafter discussing
p11866
aVafter discuss
p11867
atp11868
a(I1
(lp11869
Vafter destroying
p11870
aVafter destroy
p11871
atp11872
a(I1
(lp11873
Vafter delivering
p11874
aVafter deliver
p11875
atp11876
a(I1
(lp11877
Vafter dealing
p11878
aVafter deal
p11879
atp11880
a(I1
(lp11881
Vafter contrasting
p11882
aVafter contrast
p11883
atp11884
a(I1
(lp11885
Vafter consulting
p11886
aVafter consult
p11887
atp11888
a(I1
(lp11889
Vafter coding
p11890
aVafter cod
p11891
atp11892
a(I1
(lp11893
Vafter climbing
p11894
aVafter climb
p11895
atp11896
a(I1
(lp11897
Vafter claiming
p11898
aVafter claim
p11899
atp11900
a(I1
(lp11901
Vafter changing
p11902
aVafter chang
p11903
atp11904
a(I1
(lp11905
Vafter borrowing
p11906
aVafter borrow
p11907
atp11908
a(I1
(lp11909
Vafter bending
p11910
aVafter bend
p11911
atp11912
a(I1
(lp11913
Vafter bearing
p11914
aVafter bear
p11915
atp11916
a(I1
(lp11917
Vafter attempting
p11918
aVafter attempt
p11919
atp11920
a(I1
(lp11921
Vafter attacking
p11922
aVafter attack
p11923
atp11924
a(I1
(lp11925
Vafter attaching
p11926
aVafter attach
p11927
atp11928
a(I1
(lp11929
Vafter assigning
p11930
aVafter assign
p11931
atp11932
a(I1
(lp11933
Vafter assessing
p11934
aVafter assess
p11935
atp11936
a(I1
(lp11937
Vafter applying
p11938
aVafter apply
p11939
atp11940
a(I1
(lp11941
Vafter allowing
p11942
aVafter allow
p11943
atp11944
a(I1
(lp11945
Vafter adopting
p11946
aVafter adopt
p11947
atp11948
a(I1
(lp11949
Vafter addressing
p11950
aVafter address
p11951
atp11952
a(I1
(lp11953
Vacross steaming
p11954
aVacross steam
p11955
atp11956
a(I1
(lp11957
Vacross rolling
p11958
aVacross roll
p11959
atp11960
a(I1
(lp11961
Vabove concerning
p11962
aVabove concern
p11963
atp11964
a(I1
(lp11965
Vabove being
p11966
aVabove be
p11967
atp11968
a(I1
(lp11969
Vabove allowing
p11970
aVabove allow
p11971
atp11972
a(I1
(lp11973
Vabout washing
p11974
aVabout wash
p11975
atp11976
a(I1
(lp11977
Vabout waiting
p11978
aVabout wait
p11979
atp11980
a(I1
(lp11981
Vabout touching
p11982
aVabout touch
p11983
atp11984
a(I1
(lp11985
Vabout studying
p11986
aVabout study
p11987
atp11988
a(I1
(lp11989
Vabout straightening
p11990
aVabout straighten
p11991
atp11992
a(I1
(lp11993
Vabout sorting
p11994
aVabout sort
p11995
atp11996
a(I1
(lp11997
Vabout signing
p11998
aVabout sign
p11999
atp12000
a(I1
(lp12001
Vabout seeking
p12002
aVabout seek
p12003
atp12004
a(I1
(lp12005
Vabout satisfying
p12006
aVabout satisfy
p12007
atp12008
a(I1
(lp12009
Vabout ringing
p12010
aVabout r
p12011
atp12012
a(I1
(lp12013
Vabout retaining
p12014
aVabout retain
p12015
atp12016
a(I1
(lp12017
Vabout reporting
p12018
aVabout report
p12019
atp12020
a(I1
(lp12021
Vabout relying
p12022
aVabout rely
p12023
atp12024
a(I1
(lp12025
Vabout rebuilding
p12026
aVabout rebuild
p12027
atp12028
a(I1
(lp12029
Vabout reaching
p12030
aVabout reach
p12031
atp12032
a(I1
(lp12033
Vabout protecting
p12034
aVabout protect
p12035
atp12036
a(I1
(lp12037
Vabout proceeding
p12038
aVabout proceed
p12039
atp12040
a(I1
(lp12041
Vabout prevailing
p12042
aVabout prevail
p12043
atp12044
a(I1
(lp12045
Vabout praying
p12046
aVabout pray
p12047
atp12048
a(I1
(lp12049
Vabout polishing
p12050
aVabout polish
p12051
atp12052
a(I1
(lp12053
Vabout picking
p12054
aVabout pick
p12055
atp12056
a(I1
(lp12057
Vabout passing
p12058
aVabout pass
p12059
atp12060
a(I1
(lp12061
Vabout packing
p12062
aVabout pack
p12063
atp12064
a(I1
(lp12065
Vabout ordering
p12066
aVabout order
p12067
atp12068
a(I1
(lp12069
Vabout obtaining
p12070
aVabout obtain
p12071
atp12072
a(I1
(lp12073
Vabout obeying
p12074
aVabout obey
p12075
atp12076
a(I1
(lp12077
Vabout needing
p12078
aVabout need
p12079
atp12080
a(I1
(lp12081
Vabout matching
p12082
aVabout match
p12083
atp12084
a(I1
(lp12085
Vabout locking
p12086
aVabout lock
p12087
atp12088
a(I1
(lp12089
Vabout licking
p12090
aVabout lick
p12091
atp12092
a(I1
(lp12093
Vabout launching
p12094
aVabout launch
p12095
atp12096
a(I1
(lp12097
Vabout killing
p12098
aVabout kill
p12099
atp12100
a(I1
(lp12101
Vabout investing
p12102
aVabout invest
p12103
atp12104
a(I1
(lp12105
Vabout hurting
p12106
aVabout hurt
p12107
atp12108
a(I1
(lp12109
Vabout holding
p12110
aVabout hold
p12111
atp12112
a(I1
(lp12113
Vabout hiding
p12114
aVabout hid
p12115
atp12116
a(I1
(lp12117
Vabout hanging
p12118
aVabout hang
p12119
atp12120
a(I1
(lp12121
Vabout gaining
p12122
aVabout gain
p12123
atp12124
a(I1
(lp12125
Vabout founding
p12126
aVabout found
p12127
atp12128
a(I1
(lp12129
Vabout focusing
p12130
aVabout focus
p12131
atp12132
a(I1
(lp12133
Vabout flashing
p12134
aVabout flash
p12135
atp12136
a(I1
(lp12137
Vabout finishing
p12138
aVabout finish
p12139
atp12140
a(I1
(lp12141
Vabout falling
p12142
aVabout fall
p12143
atp12144
a(I1
(lp12145
Vabout expanding
p12146
aVabout expand
p12147
atp12148
a(I1
(lp12149
Vabout existing
p12150
aVabout exist
p12151
atp12152
a(I1
(lp12153
Vabout ending
p12154
aVabout end
p12155
atp12156
a(I1
(lp12157
Vabout drilling
p12158
aVabout drill
p12159
atp12160
a(I1
(lp12161
Vabout dreaming
p12162
aVabout dream
p12163
atp12164
a(I1
(lp12165
Vabout drawing
p12166
aVabout draw
p12167
atp12168
a(I1
(lp12169
Vabout discovering
p12170
aVabout discover
p12171
atp12172
a(I1
(lp12173
Vabout denying
p12174
aVabout deny
p12175
atp12176
a(I1
(lp12177
Vabout defending
p12178
aVabout defend
p12179
atp12180
a(I1
(lp12181
Vabout crossing
p12182
aVabout cross
p12183
atp12184
a(I1
(lp12185
Vabout converting
p12186
aVabout convert
p12187
atp12188
a(I1
(lp12189
Vabout catching
p12190
aVabout catch
p12191
atp12192
a(I1
(lp12193
Vabout casting
p12194
aVabout cast
p12195
atp12196
a(I1
(lp12197
Vabout calling
p12198
aVabout call
p12199
atp12200
a(I1
(lp12201
Vabout burning
p12202
aVabout burn
p12203
atp12204
a(I1
(lp12205
Vabout attending
p12206
aVabout attend
p12207
atp12208
a(I1
(lp12209
Vabout adjusting
p12210
aVabout adjust
p12211
atp12212
a(I1
(lp12213
Vabout acting
p12214
aVabout act
p12215
atp12216
a(I1
(lp12217
Vabout according
p12218
aVabout accord
p12219
atp12220
a(I1
(lp12221
Vabout accepting
p12222
aVabout accept
p12223
atp12224
a(I1
(lp12225
Vaboard telling
p12226
aVaboard tell
p12227
atp12228
a.