(lp0
(I4254
(lp1
Vyou have
p2
aVyour have
p3
atp4
a(I2552
(lp5
Vyou know
p6
aVyour know
p7
atp8
a(I2064
(lp9
Vthey have
p10
aVtheir have
p11
atp12
a(I1772
(lp13
Vyou think
p14
aVyour think
p15
atp16
a(I1365
(lp17
Vyou see
p18
aVyour see
p19
atp20
a(I1304
(lp21
Vyou want
p22
aVyour want
p23
atp24
a(I1047
(lp25
Vthey do
p26
aVtheir do
p27
atp28
a(I834
(lp29
Vyou don
p30
aVyour don
p31
atp32
a(I738
(lp33
Vwe know
p34
aVours know
p35
atp36
a(I718
(lp37
Vyou get
p38
aVyour get
p39
atp40
a(I681
(lp41
Vyou read
p42
aVyour read
p43
atp44
a(I611
(lp45
Vyou like
p46
aVyour like
p47
atp48
a(I571
(lp49
Vyou feel
p50
aVyour feel
p51
atp52
a(I477
(lp53
Vyou find
p54
aVyour find
p55
atp56
a(I449
(lp57
Vyou go
p58
aVyour go
p59
atp60
a(I375
(lp61
Vhe couldn
p62
aVhis couldn
p63
atp64
a(I355
(lp65
Vyou eat
p66
aVyour eat
p67
atp68
a(I338
(lp69
Vwe see
p70
aVours see
p71
atp72
a(I338
(lp73
Vthey want
p74
aVtheir want
p75
atp76
a(I337
(lp77
Vwe use
p78
aVours use
p79
atp80
a(I321
(lp81
Vwe call
p82
aVours call
p83
atp84
a(I311
(lp85
Vyou hear
p86
aVyour hear
p87
atp88
a(I304
(lp89
Vwe don
p90
aVours don
p91
atp92
a(I303
(lp93
Vyou mean
p94
aVyour mean
p95
atp96
a(I292
(lp97
Vwe need
p98
aVours need
p99
atp100
a(I284
(lp101
Vyou live
p102
aVyour live
p103
atp104
a(I272
(lp105
Vthey didn
p106
aVtheir didn
p107
atp108
a(I269
(lp109
Vthey got
p110
aVtheir got
p111
atp112
a(I266
(lp113
Vwe want
p114
aVours want
p115
atp116
a(I264
(lp117
Vwe get
p118
aVours get
p119
atp120
a(I261
(lp121
Vthey don
p122
aVtheir don
p123
atp124
a(I260
(lp125
Vthey live
p126
aVtheir live
p127
atp128
a(I255
(lp129
Vyou understand
p130
aVyour understand
p131
atp132
a(I246
(lp133
Vyou tell
p134
aVyour tell
p135
atp136
a(I241
(lp137
Vyou remember
p138
aVyour remember
p139
atp140
a(I241
(lp141
Vthey know
p142
aVtheir know
p143
atp144
a(I237
(lp145
Vyou learn
p146
aVyour learn
p147
atp148
a(I237
(lp149
Vyou come
p150
aVyour come
p151
atp152
a(I236
(lp153
Vthey get
p154
aVtheir get
p155
atp156
a(I222
(lp157
Vwe find
p158
aVours find
p159
atp160
a(I208
(lp161
Vyou write
p162
aVyour write
p163
atp164
a(I204
(lp165
Vyou didn
p166
aVyour didn
p167
atp168
a(I200
(lp169
Vyou put
p170
aVyour put
p171
atp172
a(I194
(lp173
Vwe go
p174
aVours go
p175
atp176
a(I189
(lp177
Vwe say
p178
aVours say
p179
atp180
a(I188
(lp181
Vthey come
p182
aVtheir come
p183
atp184
a(I184
(lp185
Vthey think
p186
aVtheir think
p187
atp188
a(I181
(lp189
Vwe live
p190
aVours live
p191
atp192
a(I174
(lp193
Vthey grow
p194
aVtheir grow
p195
atp196
a(I154
(lp197
Vthey go
p198
aVtheir go
p199
atp200
a(I148
(lp201
Vyou begin
p202
aVyour begin
p203
atp204
a(I145
(lp205
Vthey take
p206
aVtheir take
p207
atp208
a(I144
(lp209
Vthey become
p210
aVtheir become
p211
atp212
a(I141
(lp213
Vthey put
p214
aVtheir put
p215
atp216
a(I131
(lp217
Vyou give
p218
aVyour give
p219
atp220
a(I131
(lp221
Vwe didn
p222
aVours didn
p223
atp224
a(I127
(lp225
Vthey eat
p226
aVtheir eat
p227
atp228
a(I126
(lp229
Vthey feel
p230
aVtheir feel
p231
atp232
a(I125
(lp233
Vyou choose
p234
aVyour choose
p235
atp236
a(I125
(lp237
Vwe think
p238
aVours think
p239
atp240
a(I124
(lp241
Vyou decide
p242
aVyour decide
p243
atp244
a(I119
(lp245
Vyou couldn
p246
aVyour couldn
p247
atp248
a(I119
(lp249
Vyou buy
p250
aVyour buy
p251
atp252
a(I119
(lp253
Vthey learn
p254
aVtheir learn
p255
atp256
a(I110
(lp257
Vthey tell
p258
aVtheir tell
p259
atp260
a(I108
(lp261
Vyou wouldn
p262
aVyour wouldn
p263
atp264
a(I108
(lp265
Vyou suppose
p266
aVyour suppose
p267
atp268
a(I108
(lp269
Vyou believe
p270
aVyour believe
p271
atp272
a(I107
(lp273
Vyou try
p274
aVyour try
p275
atp276
a(I107
(lp277
Vwe make
p278
aVours make
p279
atp280
a(I107
(lp281
Vthey believe
p282
aVtheir believe
p283
atp284
a(I105
(lp285
Vwe take
p286
aVours take
p287
atp288
a(I104
(lp289
Vthey see
p290
aVtheir see
p291
atp292
a(I103
(lp293
Vyou start
p294
aVyour start
p295
atp296
a(I99
(lp297
Vthey seem
p298
aVtheir seem
p299
atp300
a(I97
(lp301
Vyou become
p302
aVyour become
p303
atp304
a(I97
(lp305
Vwe eat
p306
aVours eat
p307
atp308
a(I97
(lp309
Vthey couldn
p310
aVtheir couldn
p311
atp312
a(I94
(lp313
Vyou ask
p314
aVyour ask
p315
atp316
a(I93
(lp317
Vyou grow
p318
aVyour grow
p319
atp320
a(I93
(lp321
Vthey give
p322
aVtheir give
p323
atp324
a(I92
(lp325
Vwe look
p326
aVours look
p327
atp328
a(I90
(lp329
Vthey try
p330
aVtheir try
p331
atp332
a(I88
(lp333
Vwe learn
p334
aVours learn
p335
atp336
a(I87
(lp337
Vus see
p338
aVour see
p339
atp340
a(I86
(lp341
Vyou stay
p342
aVyour stay
p343
atp344
a(I85
(lp345
Vyou speak
p346
aVyour speak
p347
atp348
a(I82
(lp349
Vyou let
p350
aVyour let
p351
atp352
a(I82
(lp353
Vyou finish
p354
aVyour finish
p355
atp356
a(I81
(lp357
Vwe mean
p358
aVours mean
p359
atp360
a(I78
(lp361
Vme feel
p362
aVmy feel
p363
atp364
a(I75
(lp365
Vyou imagine
p366
aVyour imagine
p367
atp368
a(I75
(lp369
Vyou expect
p370
aVyour expect
p371
atp372
a(I75
(lp373
Vthey keep
p374
aVtheir keep
p375
atp376
a(I74
(lp377
Vyou enjoy
p378
aVyour enjoy
p379
atp380
a(I74
(lp381
Vthey begin
p382
aVtheir begin
p383
atp384
a(I73
(lp385
Vwe come
p386
aVours come
p387
atp388
a(I73
(lp389
Vthey weren
p390
aVtheir weren
p391
atp392
a(I73
(lp393
Vthey contain
p394
aVtheir contain
p395
atp396
a(I72
(lp397
Vyou sit
p398
aVyour sit
p399
atp400
a(I70
(lp401
Vwe couldn
p402
aVours couldn
p403
atp404
a(I70
(lp405
Vhim feel
p406
aVhis feel
p407
atp408
a(I69
(lp409
Vthey wouldn
p410
aVtheir wouldn
p411
atp412
a(I69
(lp413
Vthey tend
p414
aVtheir tend
p415
atp416
a(I69
(lp417
Vit go
p418
aVits go
p419
atp420
a(I67
(lp421
Vthey appear
p422
aVtheir appear
p423
atp424
a(I66
(lp425
Vwe feel
p426
aVours feel
p427
atp428
a(I65
(lp429
Vwe read
p430
aVours read
p431
atp432
a(I64
(lp433
Vthey read
p434
aVtheir read
p435
atp436
a(I64
(lp437
Vthey include
p438
aVtheir include
p439
atp440
a(I64
(lp441
Vthem have
p442
aVtheir have
p443
atp444
a(I63
(lp445
Vhe have
p446
aVhis have
p447
atp448
a(I62
(lp449
Vthey carry
p450
aVtheir carry
p451
atp452
a(I61
(lp453
Vwe begin
p454
aVours begin
p455
atp456
a(I61
(lp457
Vus have
p458
aVour have
p459
atp460
a(I60
(lp461
Vwe speak
p462
aVours speak
p463
atp464
a(I60
(lp465
Vit are
p466
aVits are
p467
atp468
a(I59
(lp469
Vyou run
p470
aVyour run
p471
atp472
a(I59
(lp473
Vit have
p474
aVits have
p475
atp476
a(I58
(lp477
Vwe wish
p478
aVours wish
p479
atp480
a(I58
(lp481
Vwe put
p482
aVours put
p483
atp484
a(I58
(lp485
Vus are
p486
aVour are
p487
atp488
a(I58
(lp489
Vthey provide
p490
aVtheir provide
p491
atp492
a(I57
(lp493
Vwe hear
p494
aVours hear
p495
atp496
a(I55
(lp497
Vyou please
p498
aVyour please
p499
atp500
a(I55
(lp501
Vthey buy
p502
aVtheir buy
p503
atp504
a(I54
(lp505
Vthey receive
p506
aVtheir receive
p507
atp508
a(I53
(lp509
Vyou hold
p510
aVyour hold
p511
atp512
a(I53
(lp513
Vwe talk
p514
aVours talk
p515
atp516
a(I52
(lp517
Vthey represent
p518
aVtheir represent
p519
atp520
a(I52
(lp521
Vthey hear
p522
aVtheir hear
p523
atp524
a(I51
(lp525
Vyou describe
p526
aVyour describe
p527
atp528
a(I51
(lp529
Vyou add
p530
aVyour add
p531
atp532
a(I50
(lp533
Vyou observe
p534
aVyour observe
p535
atp536
a(I50
(lp537
Vwe like
p538
aVours like
p539
atp540
a(I50
(lp541
Vwe believe
p542
aVours believe
p543
atp544
a(I49
(lp545
Vyou recall
p546
aVyour recall
p547
atp548
a(I49
(lp549
Vyou listen
p550
aVyour listen
p551
atp552
a(I49
(lp553
Vwe try
p554
aVours try
p555
atp556
a(I48
(lp557
Vit take
p558
aVits take
p559
atp560
a(I46
(lp561
Vyou receive
p562
aVyour receive
p563
atp564
a(I46
(lp565
Vyou meet
p566
aVyour meet
p567
atp568
a(I46
(lp569
Vthey sell
p570
aVtheir sell
p571
atp572
a(I45
(lp573
Vyou spend
p574
aVyour spend
p575
atp576
a(I45
(lp577
Vyou smell
p578
aVyour smell
p579
atp580
a(I45
(lp581
Vyou discover
p582
aVyour discover
p583
atp584
a(I45
(lp585
Vwe tend
p586
aVours tend
p587
atp588
a(I45
(lp589
Vwe move
p590
aVours move
p591
atp592
a(I45
(lp593
Vthey cut
p594
aVtheir cut
p595
atp596
a(I45
(lp597
Vit look
p598
aVits look
p599
atp600
a(I44
(lp601
Vthey spend
p602
aVtheir spend
p603
atp604
a(I44
(lp605
Vthey meet
p606
aVtheir meet
p607
atp608
a(I43
(lp609
Vyou wear
p610
aVyour wear
p611
atp612
a(I43
(lp613
Vthey bring
p614
aVtheir bring
p615
atp616
a(I42
(lp617
Vwe buy
p618
aVours buy
p619
atp620
a(I42
(lp621
Vthem go
p622
aVtheir go
p623
atp624
a(I41
(lp625
Vyou explain
p626
aVyour explain
p627
atp628
a(I41
(lp629
Vyou consider
p630
aVyour consider
p631
atp632
a(I40
(lp633
Vyou develop
p634
aVyour develop
p635
atp636
a(I40
(lp637
Vwe consider
p638
aVours consider
p639
atp640
a(I40
(lp641
Vthey occur
p642
aVtheir occur
p643
atp644
a(I39
(lp645
Vyou lose
p646
aVyour lose
p647
atp648
a(I39
(lp649
Vyou ain
p650
aVyour ain
p651
atp652
a(I39
(lp653
Vwe ask
p654
aVours ask
p655
atp656
a(I38
(lp657
Vyou realize
p658
aVyour realize
p659
atp660
a(I38
(lp661
Vyou aren
p662
aVyour aren
p663
atp664
a(I38
(lp665
Vwe breathe
p666
aVours breathe
p667
atp668
a(I38
(lp669
Vthey let
p670
aVtheir let
p671
atp672
a(I38
(lp673
Vthey hadn
p674
aVtheir hadn
p675
atp676
a(I38
(lp677
Vthey differ
p678
aVtheir differ
p679
atp680
a(I37
(lp681
Vwe expect
p682
aVours expect
p683
atp684
a(I37
(lp685
Vthey seek
p686
aVtheir seek
p687
atp688
a(I37
(lp689
Vthey enjoy
p690
aVtheir enjoy
p691
atp692
a(I37
(lp693
Vthey develop
p694
aVtheir develop
p695
atp696
a(I36
(lp697
Vyou drive
p698
aVyour drive
p699
atp700
a(I36
(lp701
Vyou bring
p702
aVyour bring
p703
atp704
a(I36
(lp705
Vyou agree
p706
aVyour agree
p707
atp708
a(I36
(lp709
Vwe play
p710
aVours play
p711
atp712
a(I36
(lp713
Vthey depend
p714
aVtheir depend
p715
atp716
a(I36
(lp717
Vthey decide
p718
aVtheir decide
p719
atp720
a(I35
(lp721
Vthey wear
p722
aVtheir wear
p723
atp724
a(I35
(lp725
Vthey speak
p726
aVtheir speak
p727
atp728
a(I35
(lp729
Vthey send
p730
aVtheir send
p731
atp732
a(I34
(lp733
Vwe understand
p734
aVours understand
p735
atp736
a(I34
(lp737
Vthey ask
p738
aVtheir ask
p739
atp740
a(I34
(lp741
Vit seem
p742
aVits seem
p743
atp744
a(I33
(lp745
Vwe keep
p746
aVours keep
p747
atp748
a(I33
(lp749
Vthey serve
p750
aVtheir serve
p751
atp752
a(I33
(lp753
Vthey choose
p754
aVtheir choose
p755
atp756
a(I33
(lp757
Vme have
p758
aVmy have
p759
atp760
a(I32
(lp761
Vyou shouldn
p762
aVyour shouldn
p763
atp764
a(I32
(lp765
Vyou send
p766
aVyour send
p767
atp768
a(I32
(lp769
Vyou select
p770
aVyour select
p771
atp772
a(I32
(lp773
Vyou recognize
p774
aVyour recognize
p775
atp776
a(I32
(lp777
Vyou jump
p778
aVyour jump
p779
atp780
a(I32
(lp781
Vyou hit
p782
aVyour hit
p783
atp784
a(I32
(lp785
Vwe study
p786
aVours study
p787
atp788
a(I32
(lp789
Vthey expect
p790
aVtheir expect
p791
atp792
a(I31
(lp793
Vyou seem
p794
aVyour seem
p795
atp796
a(I31
(lp797
Vyou forget
p798
aVyour forget
p799
atp800
a(I31
(lp801
Vwe start
p802
aVours start
p803
atp804
a(I31
(lp805
Vwe observe
p806
aVours observe
p807
atp808
a(I31
(lp809
Vthey write
p810
aVtheir write
p811
atp812
a(I31
(lp813
Vthey hit
p814
aVtheir hit
p815
atp816
a(I31
(lp817
Vthey belong
p818
aVtheir belong
p819
atp820
a(I31
(lp821
Vhim have
p822
aVhis have
p823
atp824
a(I30
(lp825
Vyou wonder
p826
aVyour wonder
p827
atp828
a(I30
(lp829
Vyou compare
p830
aVyour compare
p831
atp832
a(I30
(lp833
Vwe wouldn
p834
aVours wouldn
p835
atp836
a(I30
(lp837
Vwe hope
p838
aVours hope
p839
atp840
a(I30
(lp841
Vwe choose
p842
aVours choose
p843
atp844
a(I30
(lp845
Vus consider
p846
aVour consider
p847
atp848
a(I30
(lp849
Vthey pass
p850
aVtheir pass
p851
atp852
a(I30
(lp853
Vthem do
p854
aVtheir do
p855
atp856
a(I30
(lp857
Vme take
p858
aVmy take
p859
atp860
a(I29
(lp861
Vyou prepare
p862
aVyour prepare
p863
atp864
a(I29
(lp865
Vyou open
p866
aVyour open
p867
atp868
a(I29
(lp869
Vyou enter
p870
aVyour enter
p871
atp872
a(I29
(lp873
Vwe walk
p874
aVours walk
p875
atp876
a(I29
(lp877
Vwe add
p878
aVours add
p879
atp880
a(I29
(lp881
Vhe see
p882
aVhis see
p883
atp884
a(I28
(lp885
Vyou draw
p886
aVyour draw
p887
atp888
a(I28
(lp889
Vyou apply
p890
aVyour apply
p891
atp892
a(I28
(lp893
Vwe grow
p894
aVours grow
p895
atp896
a(I28
(lp897
Vthey aren
p898
aVtheir aren
p899
atp900
a(I28
(lp901
Vhe want
p902
aVhis want
p903
atp904
a(I27
(lp905
Vyou identify
p906
aVyour identify
p907
atp908
a(I27
(lp909
Vyou drop
p910
aVyour drop
p911
atp912
a(I27
(lp913
Vyou belong
p914
aVyour belong
p915
atp916
a(I27
(lp917
Vwe turn
p918
aVours turn
p919
atp920
a(I27
(lp921
Vwe leave
p922
aVours leave
p923
atp924
a(I27
(lp925
Vwe give
p926
aVours give
p927
atp928
a(I27
(lp929
Vwe discuss
p930
aVours discuss
p931
atp932
a(I27
(lp933
Vthey consider
p934
aVtheir consider
p935
atp936
a(I27
(lp937
Vthey build
p938
aVtheir build
p939
atp940
a(I27
(lp941
Vthey argue
p942
aVtheir argue
p943
atp944
a(I27
(lp945
Vthem live
p946
aVtheir live
p947
atp948
a(I26
(lp949
Vwe pay
p950
aVours pay
p951
atp952
a(I26
(lp953
Vwe become
p954
aVours become
p955
atp956
a(I26
(lp957
Vus do
p958
aVour do
p959
atp960
a(I26
(lp961
Vthey remain
p962
aVtheir remain
p963
atp964
a(I25
(lp965
Vwe write
p966
aVours write
p967
atp968
a(I25
(lp969
Vthey lose
p970
aVtheir lose
p971
atp972
a(I25
(lp973
Vthey die
p974
aVtheir die
p975
atp976
a(I25
(lp977
Vthey agree
p978
aVtheir agree
p979
atp980
a(I25
(lp981
Vthey affect
p982
aVtheir affect
p983
atp984
a(I24
(lp985
Vyou count
p986
aVyour count
p987
atp988
a(I24
(lp989
Vwe refer
p990
aVours refer
p991
atp992
a(I24
(lp993
Vwe meet
p994
aVours meet
p995
atp996
a(I24
(lp997
Vwe hold
p998
aVours hold
p999
atp1000
a(I24
(lp1001
Vwe define
p1002
aVours define
p1003
atp1004
a(I24
(lp1005
Vus understand
p1006
aVour understand
p1007
atp1008
a(I24
(lp1009
Vthey stop
p1010
aVtheir stop
p1011
atp1012
a(I24
(lp1013
Vthey operate
p1014
aVtheir operate
p1015
atp1016
a(I24
(lp1017
Vthey continue
p1018
aVtheir continue
p1019
atp1020
a(I24
(lp1021
Vthem feel
p1022
aVtheir feel
p1023
atp1024
a(I23
(lp1025
Vyou weren
p1026
aVyour weren
p1027
atp1028
a(I23
(lp1029
Vyou mustn
p1030
aVyour mustn
p1031
atp1032
a(I23
(lp1033
Vyou intend
p1034
aVyour intend
p1035
atp1036
a(I23
(lp1037
Vwe weren
p1038
aVours weren
p1039
atp1040
a(I23
(lp1041
Vwe travel
p1042
aVours travel
p1043
atp1044
a(I23
(lp1045
Vwe place
p1046
aVours place
p1047
atp1048
a(I23
(lp1049
Vthou art
p1050
aVthy art
p1051
atp1052
a(I23
(lp1053
Vthey understand
p1054
aVtheir understand
p1055
atp1056
a(I23
(lp1057
Vthey teach
p1058
aVtheir teach
p1059
atp1060
a(I23
(lp1061
Vthey hope
p1062
aVtheir hope
p1063
atp1064
a(I23
(lp1065
Vthey enter
p1066
aVtheir enter
p1067
atp1068
a(I22
(lp1069
Vyou worry
p1070
aVyour worry
p1071
atp1072
a(I22
(lp1073
Vyou wait
p1074
aVyour wait
p1075
atp1076
a(I22
(lp1077
Vyou cross
p1078
aVyour cross
p1079
atp1080
a(I22
(lp1081
Vwe work
p1082
aVours work
p1083
atp1084
a(I22
(lp1085
Vthey require
p1086
aVtheir require
p1087
atp1088
a(I22
(lp1089
Vthey prefer
p1090
aVtheir prefer
p1091
atp1092
a(I22
(lp1093
Vthey breathe
p1094
aVtheir breathe
p1095
atp1096
a(I22
(lp1097
Vhe don
p1098
aVhis don
p1099
atp1100
a(I21
(lp1101
Vyou weigh
p1102
aVyour weigh
p1103
atp1104
a(I21
(lp1105
Vyou predict
p1106
aVyour predict
p1107
atp1108
a(I21
(lp1109
Vyou pass
p1110
aVyour pass
p1111
atp1112
a(I21
(lp1113
Vyou lift
p1114
aVyour lift
p1115
atp1116
a(I21
(lp1117
Vyou carry
p1118
aVyour carry
p1119
atp1120
a(I21
(lp1121
Vyou accept
p1122
aVyour accept
p1123
atp1124
a(I21
(lp1125
Vwe run
p1126
aVours run
p1127
atp1128
a(I21
(lp1129
Vwe recognize
p1130
aVours recognize
p1131
atp1132
a(I21
(lp1133
Vwe listen
p1134
aVours listen
p1135
atp1136
a(I21
(lp1137
Vthey exist
p1138
aVtheir exist
p1139
atp1140
a(I21
(lp1141
Vthey drink
p1142
aVtheir drink
p1143
atp1144
a(I20
(lp1145
Vyou rub
p1146
aVyour rub
p1147
atp1148
a(I20
(lp1149
Vyou examine
p1150
aVyour examine
p1151
atp1152
a(I20
(lp1153
Vyou break
p1154
aVyour break
p1155
atp1156
a(I20
(lp1157
Vwe stay
p1158
aVours stay
p1159
atp1160
a(I20
(lp1161
Vwe love
p1162
aVours love
p1163
atp1164
a(I20
(lp1165
Vwe drive
p1166
aVours drive
p1167
atp1168
a(I20
(lp1169
Vus learn
p1170
aVour learn
p1171
atp1172
a(I20
(lp1173
Vthey watch
p1174
aVtheir watch
p1175
atp1176
a(I20
(lp1177
Vthey vary
p1178
aVtheir vary
p1179
atp1180
a(I20
(lp1181
Vthey measure
p1182
aVtheir measure
p1183
atp1184
a(I20
(lp1185
Vthey fail
p1186
aVtheir fail
p1187
atp1188
a(I20
(lp1189
Vthey combine
p1190
aVtheir combine
p1191
atp1192
a(I20
(lp1193
Vthey accept
p1194
aVtheir accept
p1195
atp1196
a(I20
(lp1197
Vit do
p1198
aVits do
p1199
atp1200
a(I19
(lp1201
Vyou continue
p1202
aVyour continue
p1203
atp1204
a(I19
(lp1205
Vwe share
p1206
aVours share
p1207
atp1208
a(I19
(lp1209
Vwe measure
p1210
aVours measure
p1211
atp1212
a(I19
(lp1213
Vthey raise
p1214
aVtheir raise
p1215
atp1216
a(I19
(lp1217
Vthey fly
p1218
aVtheir fly
p1219
atp1220
a(I18
(lp1221
Vyou wake
p1222
aVyour wake
p1223
atp1224
a(I18
(lp1225
Vyou swallow
p1226
aVyour swallow
p1227
atp1228
a(I18
(lp1229
Vyou determine
p1230
aVyour determine
p1231
atp1232
a(I18
(lp1233
Vwe stop
p1234
aVours stop
p1235
atp1236
a(I18
(lp1237
Vwe receive
p1238
aVours receive
p1239
atp1240
a(I18
(lp1241
Vwe reach
p1242
aVours reach
p1243
atp1244
a(I18
(lp1245
Vwe pass
p1246
aVours pass
p1247
atp1248
a(I18
(lp1249
Vwe obtain
p1250
aVours obtain
p1251
atp1252
a(I18
(lp1253
Vwe let
p1254
aVours let
p1255
atp1256
a(I18
(lp1257
Vwe follow
p1258
aVours follow
p1259
atp1260
a(I18
(lp1261
Vwe assume
p1262
aVours assume
p1263
atp1264
a(I18
(lp1265
Vus say
p1266
aVour say
p1267
atp1268
a(I18
(lp1269
Vus make
p1270
aVour make
p1271
atp1272
a(I18
(lp1273
Vthey swim
p1274
aVtheir swim
p1275
atp1276
a(I18
(lp1277
Vthey perform
p1278
aVtheir perform
p1279
atp1280
a(I18
(lp1281
Vthey obtain
p1282
aVtheir obtain
p1283
atp1284
a(I18
(lp1285
Vthey listen
p1286
aVtheir listen
p1287
atp1288
a(I18
(lp1289
Vthey fit
p1290
aVtheir fit
p1291
atp1292
a(I17
(lp1293
Vyou swim
p1294
aVyour swim
p1295
atp1296
a(I17
(lp1297
Vyou respond
p1298
aVyour respond
p1299
atp1300
a(I17
(lp1301
Vyou chew
p1302
aVyour chew
p1303
atp1304
a(I17
(lp1305
Vyou avoid
p1306
aVyour avoid
p1307
atp1308
a(I17
(lp1309
Vwe sell
p1310
aVours sell
p1311
atp1312
a(I17
(lp1313
Vwe seek
p1314
aVours seek
p1315
atp1316
a(I17
(lp1317
Vwe notice
p1318
aVours notice
p1319
atp1320
a(I17
(lp1321
Vwe hadn
p1322
aVours hadn
p1323
atp1324
a(I17
(lp1325
Vwe enjoy
p1326
aVours enjoy
p1327
atp1328
a(I17
(lp1329
Vwe encounter
p1330
aVours encounter
p1331
atp1332
a(I17
(lp1333
Vus feel
p1334
aVour feel
p1335
atp1336
a(I17
(lp1337
Vthey reflect
p1338
aVtheir reflect
p1339
atp1340
a(I17
(lp1341
Vthey refer
p1342
aVtheir refer
p1343
atp1344
a(I17
(lp1345
Vthey react
p1346
aVtheir react
p1347
atp1348
a(I17
(lp1349
Vthey observe
p1350
aVtheir observe
p1351
atp1352
a(I17
(lp1353
Vthey add
p1354
aVtheir add
p1355
atp1356
a(I17
(lp1357
Vthemselves have
p1358
aVtheir have
p1359
atp1360
a(I16
(lp1361
Vyou sound
p1362
aVyour sound
p1363
atp1364
a(I16
(lp1365
Vyou react
p1366
aVyour react
p1367
atp1368
a(I16
(lp1369
Vyou prefer
p1370
aVyour prefer
p1371
atp1372
a(I16
(lp1373
Vyou owe
p1374
aVyour owe
p1375
atp1376
a(I16
(lp1377
Vyou miss
p1378
aVyour miss
p1379
atp1380
a(I16
(lp1381
Vwe tell
p1382
aVours tell
p1383
atp1384
a(I16
(lp1385
Vwe spend
p1386
aVours spend
p1387
atp1388
a(I16
(lp1389
Vwe explain
p1390
aVours explain
p1391
atp1392
a(I16
(lp1393
Vwe experience
p1394
aVours experience
p1395
atp1396
a(I16
(lp1397
Vwe decide
p1398
aVours decide
p1399
atp1400
a(I16
(lp1401
Vwe accept
p1402
aVours accept
p1403
atp1404
a(I16
(lp1405
Vus know
p1406
aVour know
p1407
atp1408
a(I16
(lp1409
Vthey touch
p1410
aVtheir touch
p1411
atp1412
a(I16
(lp1413
Vthey remember
p1414
aVtheir remember
p1415
atp1416
a(I16
(lp1417
Vthey push
p1418
aVtheir push
p1419
atp1420
a(I16
(lp1421
Vthey earn
p1422
aVtheir earn
p1423
atp1424
a(I16
(lp1425
Vthey beat
p1426
aVtheir beat
p1427
atp1428
a(I15
(lp1429
Vyou sell
p1430
aVyour sell
p1431
atp1432
a(I15
(lp1433
Vyou needn
p1434
aVyour needn
p1435
atp1436
a(I15
(lp1437
Vyou include
p1438
aVyour include
p1439
atp1440
a(I15
(lp1441
Vyou deal
p1442
aVyour deal
p1443
atp1444
a(I15
(lp1445
Vyou dare
p1446
aVyour dare
p1447
atp1448
a(I15
(lp1449
Vyou blow
p1450
aVyour blow
p1451
atp1452
a(I15
(lp1453
Vwe remember
p1454
aVours remember
p1455
atp1456
a(I15
(lp1457
Vwe examine
p1458
aVours examine
p1459
atp1460
a(I15
(lp1461
Vwe draw
p1462
aVours draw
p1463
atp1464
a(I15
(lp1465
Vwe depend
p1466
aVours depend
p1467
atp1468
a(I15
(lp1469
Vthey stretch
p1470
aVtheir stretch
p1471
atp1472
a(I15
(lp1473
Vthey save
p1474
aVtheir save
p1475
atp1476
a(I15
(lp1477
Vthey realize
p1478
aVtheir realize
p1479
atp1480
a(I15
(lp1481
Vthey hatch
p1482
aVtheir hatch
p1483
atp1484
a(I15
(lp1485
Vthey express
p1486
aVtheir express
p1487
atp1488
a(I15
(lp1489
Vthem come
p1490
aVtheir come
p1491
atp1492
a(I14
(lp1493
Vyou reckon
p1494
aVyour reckon
p1495
atp1496
a(I14
(lp1497
Vyou press
p1498
aVyour press
p1499
atp1500
a(I14
(lp1501
Vyou locate
p1502
aVyour locate
p1503
atp1504
a(I14
(lp1505
Vyou inhale
p1506
aVyour inhale
p1507
atp1508
a(I14
(lp1509
Vyou hope
p1510
aVyour hope
p1511
atp1512
a(I14
(lp1513
Vyou fill
p1514
aVyour fill
p1515
atp1516
a(I14
(lp1517
Vwe wear
p1518
aVours wear
p1519
atp1520
a(I14
(lp1521
Vwe stand
p1522
aVours stand
p1523
atp1524
a(I14
(lp1525
Vwe help
p1526
aVours help
p1527
atp1528
a(I14
(lp1529
Vwe enter
p1530
aVours enter
p1531
atp1532
a(I14
(lp1533
Vwe describe
p1534
aVours describe
p1535
atp1536
a(I14
(lp1537
Vthey please
p1538
aVtheir please
p1539
atp1540
a(I14
(lp1541
Vthey happen
p1542
aVtheir happen
p1543
atp1544
a(I13
(lp1545
Vyou tend
p1546
aVyour tend
p1547
atp1548
a(I13
(lp1549
Vyou save
p1550
aVyour save
p1551
atp1552
a(I13
(lp1553
Vyou rest
p1554
aVyour rest
p1555
atp1556
a(I13
(lp1557
Vyou handle
p1558
aVyour handle
p1559
atp1560
a(I13
(lp1561
Vyou exhale
p1562
aVyour exhale
p1563
atp1564
a(I13
(lp1565
Vwe show
p1566
aVours show
p1567
atp1568
a(I13
(lp1569
Vwe seem
p1570
aVours seem
p1571
atp1572
a(I13
(lp1573
Vwe realize
p1574
aVours realize
p1575
atp1576
a(I13
(lp1577
Vwe produce
p1578
aVours produce
p1579
atp1580
a(I13
(lp1581
Vwe continue
p1582
aVours continue
p1583
atp1584
a(I13
(lp1585
Vus suppose
p1586
aVour suppose
p1587
atp1588
a(I13
(lp1589
Vus imagine
p1590
aVour imagine
p1591
atp1592
a(I13
(lp1593
Vthey throw
p1594
aVtheir throw
p1595
atp1596
a(I13
(lp1597
Vthey swam
p1598
aVtheir swam
p1599
atp1600
a(I13
(lp1601
Vthey sit
p1602
aVtheir sit
p1603
atp1604
a(I13
(lp1605
Vthey resemble
p1606
aVtheir resemble
p1607
atp1608
a(I13
(lp1609
Vthey hurt
p1610
aVtheir hurt
p1611
atp1612
a(I13
(lp1613
Vthey compete
p1614
aVtheir compete
p1615
atp1616
a(I13
(lp1617
Vthey behave
p1618
aVtheir behave
p1619
atp1620
a(I13
(lp1621
Vthey arrive
p1622
aVtheir arrive
p1623
atp1624
a(I13
(lp1625
Vthey apply
p1626
aVtheir apply
p1627
atp1628
a(I13
(lp1629
Vthey allow
p1630
aVtheir allow
p1631
atp1632
a(I13
(lp1633
Vthey ain
p1634
aVtheir ain
p1635
atp1636
a(I13
(lp1637
Vthem seem
p1638
aVtheir seem
p1639
atp1640
a(I13
(lp1641
Vhe think
p1642
aVhis think
p1643
atp1644
a(I12
(lp1645
Vyou wash
p1646
aVyour wash
p1647
atp1648
a(I12
(lp1649
Vyou improve
p1650
aVyour improve
p1651
atp1652
a(I12
(lp1653
Vyou hate
p1654
aVyour hate
p1655
atp1656
a(I12
(lp1657
Vyou fly
p1658
aVyour fly
p1659
atp1660
a(I12
(lp1661
Vyou earn
p1662
aVyour earn
p1663
atp1664
a(I12
(lp1665
Vyou depend
p1666
aVyour depend
p1667
atp1668
a(I12
(lp1669
Vyou borrow
p1670
aVyour borrow
p1671
atp1672
a(I12
(lp1673
Vyou analyze
p1674
aVyour analyze
p1675
atp1676
a(I12
(lp1677
Vwe watch
p1678
aVours watch
p1679
atp1680
a(I12
(lp1681
Vwe shouldn
p1682
aVours shouldn
p1683
atp1684
a(I12
(lp1685
Vwe perceive
p1686
aVours perceive
p1687
atp1688
a(I12
(lp1689
Vwe forget
p1690
aVours forget
p1691
atp1692
a(I12
(lp1693
Vwe fly
p1694
aVours fly
p1695
atp1696
a(I12
(lp1697
Vwe develop
p1698
aVours develop
p1699
atp1700
a(I12
(lp1701
Vwe compare
p1702
aVours compare
p1703
atp1704
a(I12
(lp1705
Vwe aren
p1706
aVours aren
p1707
atp1708
a(I12
(lp1709
Vus try
p1710
aVour try
p1711
atp1712
a(I12
(lp1713
Vthey suggest
p1714
aVtheir suggest
p1715
atp1716
a(I12
(lp1717
Vthey strike
p1718
aVtheir strike
p1719
atp1720
a(I12
(lp1721
Vthey jump
p1722
aVtheir jump
p1723
atp1724
a(I12
(lp1725
Vthey hate
p1726
aVtheir hate
p1727
atp1728
a(I12
(lp1729
Vthey deal
p1730
aVtheir deal
p1731
atp1732
a(I12
(lp1733
Vthey assume
p1734
aVtheir assume
p1735
atp1736
a(I12
(lp1737
Vthey absorb
p1738
aVtheir absorb
p1739
atp1740
a(I12
(lp1741
Vhe hath
p1742
aVhis hath
p1743
atp1744
a(I12
(lp1745
Vhe burst
p1746
aVhis burst
p1747
atp1748
a(I11
(lp1749
Vyou sign
p1750
aVyour sign
p1751
atp1752
a(I11
(lp1753
Vyou lie
p1754
aVyour lie
p1755
atp1756
a(I11
(lp1757
Vyou gather
p1758
aVyour gather
p1759
atp1760
a(I11
(lp1761
Vyou dig
p1762
aVyour dig
p1763
atp1764
a(I11
(lp1765
Vyou cry
p1766
aVyour cry
p1767
atp1768
a(I11
(lp1769
Vyou communicate
p1770
aVyour communicate
p1771
atp1772
a(I11
(lp1773
Vyou classify
p1774
aVyour classify
p1775
atp1776
a(I11
(lp1777
Vyou bend
p1778
aVyour bend
p1779
atp1780
a(I11
(lp1781
Vyou attempt
p1782
aVyour attempt
p1783
atp1784
a(I11
(lp1785
Vwe view
p1786
aVours view
p1787
atp1788
a(I11
(lp1789
Vwe ride
p1790
aVours ride
p1791
atp1792
a(I11
(lp1793
Vwe return
p1794
aVours return
p1795
atp1796
a(I11
(lp1797
Vwe react
p1798
aVours react
p1799
atp1800
a(I11
(lp1801
Vwe plan
p1802
aVours plan
p1803
atp1804
a(I11
(lp1805
Vwe owe
p1806
aVours owe
p1807
atp1808
a(I11
(lp1809
Vwe face
p1810
aVours face
p1811
atp1812
a(I11
(lp1813
Vwe count
p1814
aVours count
p1815
atp1816
a(I11
(lp1817
Vwe change
p1818
aVours change
p1819
atp1820
a(I11
(lp1821
Vthey stick
p1822
aVtheir stick
p1823
atp1824
a(I11
(lp1825
Vthey repel
p1826
aVtheir repel
p1827
atp1828
a(I11
(lp1829
Vthey relate
p1830
aVtheir relate
p1831
atp1832
a(I11
(lp1833
Vthey pull
p1834
aVtheir pull
p1835
atp1836
a(I11
(lp1837
Vthey pick
p1838
aVtheir pick
p1839
atp1840
a(I11
(lp1841
Vthey interact
p1842
aVtheir interact
p1843
atp1844
a(I11
(lp1845
Vthey float
p1846
aVtheir float
p1847
atp1848
a(I11
(lp1849
Vthey extend
p1850
aVtheir extend
p1851
atp1852
a(I11
(lp1853
Vthey draw
p1854
aVtheir draw
p1855
atp1856
a(I11
(lp1857
Vthey divide
p1858
aVtheir divide
p1859
atp1860
a(I11
(lp1861
Vthey consist
p1862
aVtheir consist
p1863
atp1864
a(I11
(lp1865
Vthey collect
p1866
aVtheir collect
p1867
atp1868
a(I11
(lp1869
Vshe don
p1870
aVher don
p1871
atp1872
a(I11
(lp1873
Vit don
p1874
aVits don
p1875
atp1876
a(I10
(lp1877
Vyou seek
p1878
aVyour seek
p1879
atp1880
a(I10
(lp1881
Vyou revise
p1882
aVyour revise
p1883
atp1884
a(I10
(lp1885
Vyou refer
p1886
aVyour refer
p1887
atp1888
a(I10
(lp1889
Vyou perform
p1890
aVyour perform
p1891
atp1892
a(I10
(lp1893
Vyou organize
p1894
aVyour organize
p1895
atp1896
a(I10
(lp1897
Vyou hadn
p1898
aVyour hadn
p1899
atp1900
a(I10
(lp1901
Vyou fix
p1902
aVyour fix
p1903
atp1904
a(I10
(lp1905
Vyou express
p1906
aVyour express
p1907
atp1908
a(I10
(lp1909
Vyou evaluate
p1910
aVyour evaluate
p1911
atp1912
a(I10
(lp1913
Vyou burn
p1914
aVyour burn
p1915
atp1916
a(I10
(lp1917
Vwe sit
p1918
aVours sit
p1919
atp1920
a(I10
(lp1921
Vwe proceed
p1922
aVours proceed
p1923
atp1924
a(I10
(lp1925
Vwe explore
p1926
aVours explore
p1927
atp1928
a(I10
(lp1929
Vwe drink
p1930
aVours drink
p1931
atp1932
a(I10
(lp1933
Vwe celebrate
p1934
aVours celebrate
p1935
atp1936
a(I10
(lp1937
Vwe catch
p1938
aVours catch
p1939
atp1940
a(I10
(lp1941
Vwe belong
p1942
aVours belong
p1943
atp1944
a(I10
(lp1945
Vwe act
p1946
aVours act
p1947
atp1948
a(I10
(lp1949
Vthey weigh
p1950
aVtheir weigh
p1951
atp1952
a(I10
(lp1953
Vthey shouldn
p1954
aVtheir shouldn
p1955
atp1956
a(I10
(lp1957
Vthey occupy
p1958
aVtheir occupy
p1959
atp1960
a(I10
(lp1961
Vthey lie
p1962
aVtheir lie
p1963
atp1964
a(I10
(lp1965
Vthey join
p1966
aVtheir join
p1967
atp1968
a(I10
(lp1969
Vthey forget
p1970
aVtheir forget
p1971
atp1972
a(I10
(lp1973
Vthey determine
p1974
aVtheir determine
p1975
atp1976
a(I10
(lp1977
Vthey describe
p1978
aVtheir describe
p1979
atp1980
a(I10
(lp1981
Vthey contribute
p1982
aVtheir contribute
p1983
atp1984
a(I10
(lp1985
Vthey communicate
p1986
aVtheir communicate
p1987
atp1988
a(I10
(lp1989
Vthey collide
p1990
aVtheir collide
p1991
atp1992
a(I10
(lp1993
Vthem think
p1994
aVtheir think
p1995
atp1996
a(I10
(lp1997
Vthem learn
p1998
aVtheir learn
p1999
atp2000
a(I9
(lp2001
Vyou suggest
p2002
aVyour suggest
p2003
atp2004
a(I9
(lp2005
Vyou solve
p2006
aVyour solve
p2007
atp2008
a(I9
(lp2009
Vyou relax
p2010
aVyour relax
p2011
atp2012
a(I9
(lp2013
Vyou provide
p2014
aVyour provide
p2015
atp2016
a(I9
(lp2017
Vyou perceive
p2018
aVyour perceive
p2019
atp2020
a(I9
(lp2021
Vyou join
p2022
aVyour join
p2023
atp2024
a(I9
(lp2025
Vyou greet
p2026
aVyour greet
p2027
atp2028
a(I9
(lp2029
Vyou explore
p2030
aVyour explore
p2031
atp2032
a(I9
(lp2033
Vyou assume
p2034
aVyour assume
p2035
atp2036
a(I9
(lp2037
Vyou acquire
p2038
aVyour acquire
p2039
atp2040
a(I9
(lp2041
Vwe throw
p2042
aVours throw
p2043
atp2044
a(I9
(lp2045
Vwe suggest
p2046
aVours suggest
p2047
atp2048
a(I9
(lp2049
Vwe select
p2050
aVours select
p2051
atp2052
a(I9
(lp2053
Vwe please
p2054
aVours please
p2055
atp2056
a(I9
(lp2057
Vwe pick
p2058
aVours pick
p2059
atp2060
a(I9
(lp2061
Vwe note
p2062
aVours note
p2063
atp2064
a(I9
(lp2065
Vwe lose
p2066
aVours lose
p2067
atp2068
a(I9
(lp2069
Vwe judge
p2070
aVours judge
p2071
atp2072
a(I9
(lp2073
Vwe fight
p2074
aVours fight
p2075
atp2076
a(I9
(lp2077
Vwe cross
p2078
aVours cross
p2079
atp2080
a(I9
(lp2081
Vwe climb
p2082
aVours climb
p2083
atp2084
a(I9
(lp2085
Vwe bring
p2086
aVours bring
p2087
atp2088
a(I9
(lp2089
Vwe agree
p2090
aVours agree
p2091
atp2092
a(I9
(lp2093
Vus think
p2094
aVour think
p2095
atp2096
a(I9
(lp2097
Vthey select
p2098
aVtheir select
p2099
atp2100
a(I9
(lp2101
Vthey ride
p2102
aVtheir ride
p2103
atp2104
a(I9
(lp2105
Vthey recognize
p2106
aVtheir recognize
p2107
atp2108
a(I9
(lp2109
Vthey protect
p2110
aVtheir protect
p2111
atp2112
a(I9
(lp2113
Vthey modify
p2114
aVtheir modify
p2115
atp2116
a(I9
(lp2117
Vthey maintain
p2118
aVtheir maintain
p2119
atp2120
a(I9
(lp2121
Vthey involve
p2122
aVtheir involve
p2123
atp2124
a(I9
(lp2125
Vthey hang
p2126
aVtheir hang
p2127
atp2128
a(I9
(lp2129
Vthey exert
p2130
aVtheir exert
p2131
atp2132
a(I9
(lp2133
Vthey create
p2134
aVtheir create
p2135
atp2136
a(I9
(lp2137
Vthey count
p2138
aVtheir count
p2139
atp2140
a(I9
(lp2141
Vthey burn
p2142
aVtheir burn
p2143
atp2144
a(I9
(lp2145
Vthem know
p2146
aVtheir know
p2147
atp2148
a(I9
(lp2149
Vthem become
p2150
aVtheir become
p2151
atp2152
a(I8
(lp2153
Vyou suspect
p2154
aVyour suspect
p2155
atp2156
a(I8
(lp2157
Vyou stretch
p2158
aVyour stretch
p2159
atp2160
a(I8
(lp2161
Vyou squeeze
p2162
aVyour squeeze
p2163
atp2164
a(I8
(lp2165
Vyou sneeze
p2166
aVyour sneeze
p2167
atp2168
a(I8
(lp2169
Vyou shake
p2170
aVyour shake
p2171
atp2172
a(I8
(lp2173
Vyou scratch
p2174
aVyour scratch
p2175
atp2176
a(I8
(lp2177
Vyou relate
p2178
aVyour relate
p2179
atp2180
a(I8
(lp2181
Vyou pronounce
p2182
aVyour pronounce
p2183
atp2184
a(I8
(lp2185
Vyou produce
p2186
aVyour produce
p2187
atp2188
a(I8
(lp2189
Vyou mix
p2190
aVyour mix
p2191
atp2192
a(I8
(lp2193
Vyou inherit
p2194
aVyour inherit
p2195
atp2196
a(I8
(lp2197
Vyou goin
p2198
aVyour goin
p2199
atp2200
a(I8
(lp2201
Vyou fight
p2202
aVyour fight
p2203
atp2204
a(I8
(lp2205
Vyou encounter
p2206
aVyour encounter
p2207
atp2208
a(I8
(lp2209
Vyou emphasize
p2210
aVyour emphasize
p2211
atp2212
a(I8
(lp2213
Vyou dont
p2214
aVyour dont
p2215
atp2216
a(I8
(lp2217
Vyou arrive
p2218
aVyour arrive
p2219
atp2220
a(I8
(lp2221
Vyou arrange
p2222
aVyour arrange
p2223
atp2224
a(I8
(lp2225
Vwe send
p2226
aVours send
p2227
atp2228
a(I8
(lp2229
Vwe push
p2230
aVours push
p2231
atp2232
a(I8
(lp2233
Vwe prefer
p2234
aVours prefer
p2235
atp2236
a(I8
(lp2237
Vwe imagine
p2238
aVours imagine
p2239
atp2240
a(I8
(lp2241
Vwe fail
p2242
aVours fail
p2243
atp2244
a(I8
(lp2245
Vwe desire
p2246
aVours desire
p2247
atp2248
a(I8
(lp2249
Vwe communicate
p2250
aVours communicate
p2251
atp2252
a(I8
(lp2253
Vwe build
p2254
aVours build
p2255
atp2256
a(I8
(lp2257
Vwe associate
p2258
aVours associate
p2259
atp2260
a(I8
(lp2261
Vwe approach
p2262
aVours approach
p2263
atp2264
a(I8
(lp2265
Vwe apply
p2266
aVours apply
p2267
atp2268
a(I8
(lp2269
Vwe ain
p2270
aVours ain
p2271
atp2272
a(I8
(lp2273
Vthou wilt
p2274
aVthy wilt
p2275
atp2276
a(I8
(lp2277
Vthey warn
p2278
aVtheir warn
p2279
atp2280
a(I8
(lp2281
Vthey solve
p2282
aVtheir solve
p2283
atp2284
a(I8
(lp2285
Vthey sing
p2286
aVtheir sing
p2287
atp2288
a(I8
(lp2289
Vthey settle
p2290
aVtheir settle
p2291
atp2292
a(I8
(lp2293
Vthey respond
p2294
aVtheir respond
p2295
atp2296
a(I8
(lp2297
Vthey reproduce
p2298
aVtheir reproduce
p2299
atp2300
a(I8
(lp2301
Vthey prevent
p2302
aVtheir prevent
p2303
atp2304
a(I8
(lp2305
Vthey possess
p2306
aVtheir possess
p2307
atp2308
a(I8
(lp2309
Vthey perceive
p2310
aVtheir perceive
p2311
atp2312
a(I8
(lp2313
Vthey gather
p2314
aVtheir gather
p2315
atp2316
a(I8
(lp2317
Vthey gain
p2318
aVtheir gain
p2319
atp2320
a(I8
(lp2321
Vthey establish
p2322
aVtheir establish
p2323
atp2324
a(I8
(lp2325
Vthey discover
p2326
aVtheir discover
p2327
atp2328
a(I8
(lp2329
Vthey dig
p2330
aVtheir dig
p2331
atp2332
a(I8
(lp2333
Vthey crawl
p2334
aVtheir crawl
p2335
atp2336
a(I8
(lp2337
Vthey borrow
p2338
aVtheir borrow
p2339
atp2340
a(I8
(lp2341
Vthey blow
p2342
aVtheir blow
p2343
atp2344
a(I8
(lp2345
Vthey avoid
p2346
aVtheir avoid
p2347
atp2348
a(I8
(lp2349
Vthey acquire
p2350
aVtheir acquire
p2351
atp2352
a(I8
(lp2353
Vthem put
p2354
aVtheir put
p2355
atp2356
a(I7
(lp2357
Vyou treat
p2358
aVyour treat
p2359
atp2360
a(I7
(lp2361
Vyou stir
p2362
aVyour stir
p2363
atp2364
a(I7
(lp2365
Vyou skip
p2366
aVyour skip
p2367
atp2368
a(I7
(lp2369
Vyou remain
p2370
aVyour remain
p2371
atp2372
a(I7
(lp2373
Vyou participate
p2374
aVyour participate
p2375
atp2376
a(I7
(lp2377
Vyou paint
p2378
aVyour paint
p2379
atp2380
a(I7
(lp2381
Vyou overcome
p2382
aVyour overcome
p2383
atp2384
a(I7
(lp2385
Vyou manage
p2386
aVyour manage
p2387
atp2388
a(I7
(lp2389
Vyou lack
p2390
aVyour lack
p2391
atp2392
a(I7
(lp2393
Vyou insist
p2394
aVyour insist
p2395
atp2396
a(I7
(lp2397
Vyou divide
p2398
aVyour divide
p2399
atp2400
a(I7
(lp2401
Vyou deserve
p2402
aVyour deserve
p2403
atp2404
a(I7
(lp2405
Vyou deny
p2406
aVyour deny
p2407
atp2408
a(I7
(lp2409
Vyou define
p2410
aVyour define
p2411
atp2412
a(I7
(lp2413
Vyou connect
p2414
aVyour connect
p2415
atp2416
a(I7
(lp2417
Vyou concentrate
p2418
aVyour concentrate
p2419
atp2420
a(I7
(lp2421
Vyou collect
p2422
aVyour collect
p2423
atp2424
a(I7
(lp2425
Vyou blink
p2426
aVyour blink
p2427
atp2428
a(I7
(lp2429
Vyou bite
p2430
aVyour bite
p2431
atp2432
a(I7
(lp2433
Vyou behave
p2434
aVyour behave
p2435
atp2436
a(I7
(lp2437
Vyou beat
p2438
aVyour beat
p2439
atp2440
a(I7
(lp2441
Vyou advise
p2442
aVyour advise
p2443
atp2444
a(I7
(lp2445
Vwe visit
p2446
aVours visit
p2447
atp2448
a(I7
(lp2449
Vwe organize
p2450
aVours organize
p2451
atp2452
a(I7
(lp2453
Vwe intend
p2454
aVours intend
p2455
atp2456
a(I7
(lp2457
Vwe include
p2458
aVours include
p2459
atp2460
a(I7
(lp2461
Vwe discover
p2462
aVours discover
p2463
atp2464
a(I7
(lp2465
Vwe date
p2466
aVours date
p2467
atp2468
a(I7
(lp2469
Vwe consume
p2470
aVours consume
p2471
atp2472
a(I7
(lp2473
Vwe close
p2474
aVours close
p2475
atp2476
a(I7
(lp2477
Vwe classify
p2478
aVours classify
p2479
atp2480
a(I7
(lp2481
Vwe carry
p2482
aVours carry
p2483
atp2484
a(I7
(lp2485
Vwe care
p2486
aVours care
p2487
atp2488
a(I7
(lp2489
Vwe behave
p2490
aVours behave
p2491
atp2492
a(I7
(lp2493
Vwe attempt
p2494
aVours attempt
p2495
atp2496
a(I7
(lp2497
Vwe allow
p2498
aVours allow
p2499
atp2500
a(I7
(lp2501
Vthey wait
p2502
aVtheir wait
p2503
atp2504
a(I7
(lp2505
Vthey reside
p2506
aVtheir reside
p2507
atp2508
a(I7
(lp2509
Vthey pile
p2510
aVtheir pile
p2511
atp2512
a(I7
(lp2513
Vthey kill
p2514
aVtheir kill
p2515
atp2516
a(I7
(lp2517
Vthey intend
p2518
aVtheir intend
p2519
atp2520
a(I7
(lp2521
Vthey identify
p2522
aVtheir identify
p2523
atp2524
a(I7
(lp2525
Vthey finish
p2526
aVtheir finish
p2527
atp2528
a(I7
(lp2529
Vthey compare
p2530
aVtheir compare
p2531
atp2532
a(I7
(lp2533
Vthey classify
p2534
aVtheir classify
p2535
atp2536
a(I7
(lp2537
Vthey burst
p2538
aVtheir burst
p2539
atp2540
a(I7
(lp2541
Vthey arise
p2542
aVtheir arise
p2543
atp2544
a(I7
(lp2545
Vthey analyze
p2546
aVtheir analyze
p2547
atp2548
a(I7
(lp2549
Vthem want
p2550
aVtheir want
p2551
atp2552
a(I6
(lp2553
Vyou wind
p2554
aVyour wind
p2555
atp2556
a(I6
(lp2557
Vyou teach
p2558
aVyour teach
p2559
atp2560
a(I6
(lp2561
Vyou steal
p2562
aVyour steal
p2563
atp2564
a(I6
(lp2565
Vyou stare
p2566
aVyour stare
p2567
atp2568
a(I6
(lp2569
Vyou skim
p2570
aVyour skim
p2571
atp2572
a(I6
(lp2573
Vyou roll
p2574
aVyour roll
p2575
atp2576
a(I6
(lp2577
Vyou rise
p2578
aVyour rise
p2579
atp2580
a(I6
(lp2581
Vyou possess
p2582
aVyour possess
p2583
atp2584
a(I6
(lp2585
Vyou mention
p2586
aVyour mention
p2587
atp2588
a(I6
(lp2589
Vyou match
p2590
aVyour match
p2591
atp2592
a(I6
(lp2593
Vyou marry
p2594
aVyour marry
p2595
atp2596
a(I6
(lp2597
Vyou flip
p2598
aVyour flip
p2599
atp2600
a(I6
(lp2601
Vyou dissolve
p2602
aVyour dissolve
p2603
atp2604
a(I6
(lp2605
Vyou dislike
p2606
aVyour dislike
p2607
atp2608
a(I6
(lp2609
Vyou discuss
p2610
aVyour discuss
p2611
atp2612
a(I6
(lp2613
Vyou die
p2614
aVyour die
p2615
atp2616
a(I6
(lp2617
Vyou detect
p2618
aVyour detect
p2619
atp2620
a(I6
(lp2621
Vyou create
p2622
aVyour create
p2623
atp2624
a(I6
(lp2625
Vyou conclude
p2626
aVyour conclude
p2627
atp2628
a(I6
(lp2629
Vyou combine
p2630
aVyour combine
p2631
atp2632
a(I6
(lp2633
Vyou bake
p2634
aVyour bake
p2635
atp2636
a(I6
(lp2637
Vyou appreciate
p2638
aVyour appreciate
p2639
atp2640
a(I6
(lp2641
Vyou allow
p2642
aVyour allow
p2643
atp2644
a(I6
(lp2645
Vwe trust
p2646
aVours trust
p2647
atp2648
a(I6
(lp2649
Vwe tie
p2650
aVours tie
p2651
atp2652
a(I6
(lp2653
Vwe shan
p2654
aVours shan
p2655
atp2656
a(I6
(lp2657
Vwe sense
p2658
aVours sense
p2659
atp2660
a(I6
(lp2661
Vwe require
p2662
aVours require
p2663
atp2664
a(I6
(lp2665
Vwe recommend
p2666
aVours recommend
p2667
atp2668
a(I6
(lp2669
Vwe reason
p2670
aVours reason
p2671
atp2672
a(I6
(lp2673
Vwe manage
p2674
aVours manage
p2675
atp2676
a(I6
(lp2677
Vwe land
p2678
aVours land
p2679
atp2680
a(I6
(lp2681
Vwe identify
p2682
aVours identify
p2683
atp2684
a(I6
(lp2685
Vwe dig
p2686
aVours dig
p2687
atp2688
a(I6
(lp2689
Vwe deal
p2690
aVours deal
p2691
atp2692
a(I6
(lp2693
Vus realize
p2694
aVour realize
p2695
atp2696
a(I6
(lp2697
Vthey treat
p2698
aVtheir treat
p2699
atp2700
a(I6
(lp2701
Vthey transmit
p2702
aVtheir transmit
p2703
atp2704
a(I6
(lp2705
Vthey tie
p2706
aVtheir tie
p2707
atp2708
a(I6
(lp2709
Vthey shine
p2710
aVtheir shine
p2711
atp2712
a(I6
(lp2713
Vthey rub
p2714
aVtheir rub
p2715
atp2716
a(I6
(lp2717
Vthey resist
p2718
aVtheir resist
p2719
atp2720
a(I6
(lp2721
Vthey prepare
p2722
aVtheir prepare
p2723
atp2724
a(I6
(lp2725
Vthey participate
p2726
aVtheir participate
p2727
atp2728
a(I6
(lp2729
Vthey oppose
p2730
aVtheir oppose
p2731
atp2732
a(I6
(lp2733
Vthey manage
p2734
aVtheir manage
p2735
atp2736
a(I6
(lp2737
Vthey indicate
p2738
aVtheir indicate
p2739
atp2740
a(I6
(lp2741
Vthey hire
p2742
aVtheir hire
p2743
atp2744
a(I6
(lp2745
Vthey figure
p2746
aVtheir figure
p2747
atp2748
a(I6
(lp2749
Vthey explore
p2750
aVtheir explore
p2751
atp2752
a(I6
(lp2753
Vthey enable
p2754
aVtheir enable
p2755
atp2756
a(I6
(lp2757
Vthey discuss
p2758
aVtheir discuss
p2759
atp2760
a(I6
(lp2761
Vthey clung
p2762
aVtheir clung
p2763
atp2764
a(I6
(lp2765
Vthey chew
p2766
aVtheir chew
p2767
atp2768
a(I6
(lp2769
Vthey check
p2770
aVtheir check
p2771
atp2772
a(I6
(lp2773
Vthey bounce
p2774
aVtheir bounce
p2775
atp2776
a(I6
(lp2777
Vthemselves do
p2778
aVtheir do
p2779
atp2780
a(I6
(lp2781
Vthem take
p2782
aVtheir take
p2783
atp2784
a(I6
(lp2785
Vthem carry
p2786
aVtheir carry
p2787
atp2788
a(I6
(lp2789
Vme are
p2790
aVmy are
p2791
atp2792
a(I6
(lp2793
Vit burst
p2794
aVits burst
p2795
atp2796
a(I6
(lp2797
Vhim seem
p2798
aVhis seem
p2799
atp2800
a(I6
(lp2801
Vhe feel
p2802
aVhis feel
p2803
atp2804
a(I5
(lp2805
Vyou whisper
p2806
aVyour whisper
p2807
atp2808
a(I5
(lp2809
Vyou transfer
p2810
aVyour transfer
p2811
atp2812
a(I5
(lp2813
Vyou switch
p2814
aVyour switch
p2815
atp2816
a(I5
(lp2817
Vyou spoil
p2818
aVyour spoil
p2819
atp2820
a(I5
(lp2821
Vyou sing
p2822
aVyour sing
p2823
atp2824
a(I5
(lp2825
Vyou shoot
p2826
aVyour shoot
p2827
atp2828
a(I5
(lp2829
Vyou sew
p2830
aVyour sew
p2831
atp2832
a(I5
(lp2833
Vyou scan
p2834
aVyour scan
p2835
atp2836
a(I5
(lp2837
Vyou sail
p2838
aVyour sail
p2839
atp2840
a(I5
(lp2841
Vyou qualify
p2842
aVyour qualify
p2843
atp2844
a(I5
(lp2845
Vyou protect
p2846
aVyour protect
p2847
atp2848
a(I5
(lp2849
Vyou prevent
p2850
aVyour prevent
p2851
atp2852
a(I5
(lp2853
Vyou pretend
p2854
aVyour pretend
p2855
atp2856
a(I5
(lp2857
Vyou multiply
p2858
aVyour multiply
p2859
atp2860
a(I5
(lp2861
Vyou lend
p2862
aVyour lend
p2863
atp2864
a(I5
(lp2865
Vyou increase
p2866
aVyour increase
p2867
atp2868
a(I5
(lp2869
Vyou ignore
p2870
aVyour ignore
p2871
atp2872
a(I5
(lp2873
Vyou hang
p2874
aVyour hang
p2875
atp2876
a(I5
(lp2877
Vyou feed
p2878
aVyour feed
p2879
atp2880
a(I5
(lp2881
Vyou fail
p2882
aVyour fail
p2883
atp2884
a(I5
(lp2885
Vyou dip
p2886
aVyour dip
p2887
atp2888
a(I5
(lp2889
Vyou dial
p2890
aVyour dial
p2891
atp2892
a(I5
(lp2893
Vyou dance
p2894
aVyour dance
p2895
atp2896
a(I5
(lp2897
Vyou cover
p2898
aVyour cover
p2899
atp2900
a(I5
(lp2901
Vyou cook
p2902
aVyour cook
p2903
atp2904
a(I5
(lp2905
Vyou comprehend
p2906
aVyour comprehend
p2907
atp2908
a(I5
(lp2909
Vyou bump
p2910
aVyour bump
p2911
atp2912
a(I5
(lp2913
Vyou bother
p2914
aVyour bother
p2915
atp2916
a(I5
(lp2917
Vyou boil
p2918
aVyour boil
p2919
atp2920
a(I5
(lp2921
Vyou associate
p2922
aVyour associate
p2923
atp2924
a(I5
(lp2925
Vyou admire
p2926
aVyour admire
p2927
atp2928
a(I5
(lp2929
Vwe waste
p2930
aVours waste
p2931
atp2932
a(I5
(lp2933
Vwe thank
p2934
aVours thank
p2935
atp2936
a(I5
(lp2937
Vwe rush
p2938
aVours rush
p2939
atp2940
a(I5
(lp2941
Vwe respond
p2942
aVours respond
p2943
atp2944
a(I5
(lp2945
Vwe remove
p2946
aVours remove
p2947
atp2948
a(I5
(lp2949
Vwe rely
p2950
aVours rely
p2951
atp2952
a(I5
(lp2953
Vwe recall
p2954
aVours recall
p2955
atp2956
a(I5
(lp2957
Vwe provide
p2958
aVours provide
p2959
atp2960
a(I5
(lp2961
Vwe possess
p2962
aVours possess
p2963
atp2964
a(I5
(lp2965
Vwe plant
p2966
aVours plant
p2967
atp2968
a(I5
(lp2969
Vwe mustn
p2970
aVours mustn
p2971
atp2972
a(I5
(lp2973
Vwe mix
p2974
aVours mix
p2975
atp2976
a(I5
(lp2977
Vwe limit
p2978
aVours limit
p2979
atp2980
a(I5
(lp2981
Vwe join
p2982
aVours join
p2983
atp2984
a(I5
(lp2985
Vwe increase
p2986
aVours increase
p2987
atp2988
a(I5
(lp2989
Vwe force
p2990
aVours force
p2991
atp2992
a(I5
(lp2993
Vwe focus
p2994
aVours focus
p2995
atp2996
a(I5
(lp2997
Vwe feed
p2998
aVours feed
p2999
atp3000
a(I5
(lp3001
Vwe divide
p3002
aVours divide
p3003
atp3004
a(I5
(lp3005
Vwe die
p3006
aVours die
p3007
atp3008
a(I5
(lp3009
Vwe conclude
p3010
aVours conclude
p3011
atp3012
a(I5
(lp3013
Vwe collect
p3014
aVours collect
p3015
atp3016
a(I5
(lp3017
Vwe cause
p3018
aVours cause
p3019
atp3020
a(I5
(lp3021
Vwe beg
p3022
aVours beg
p3023
atp3024
a(I5
(lp3025
Vus want
p3026
aVour want
p3027
atp3028
a(I5
(lp3029
Vus tell
p3030
aVour tell
p3031
atp3032
a(I5
(lp3033
Vus escape
p3034
aVour escape
p3035
atp3036
a(I5
(lp3037
Vus believe
p3038
aVour believe
p3039
atp3040
a(I5
(lp3041
Vthey win
p3042
aVtheir win
p3043
atp3044
a(I5
(lp3045
Vthey tear
p3046
aVtheir tear
p3047
atp3048
a(I5
(lp3049
Vthey spin
p3050
aVtheir spin
p3051
atp3052
a(I5
(lp3053
Vthey shut
p3054
aVtheir shut
p3055
atp3056
a(I5
(lp3057
Vthey shone
p3058
aVtheir shone
p3059
atp3060
a(I5
(lp3061
Vthey rotate
p3062
aVtheir rotate
p3063
atp3064
a(I5
(lp3065
Vthey remove
p3066
aVtheir remove
p3067
atp3068
a(I5
(lp3069
Vthey remind
p3070
aVtheir remind
p3071
atp3072
a(I5
(lp3073
Vthey rely
p3074
aVtheir rely
p3075
atp3076
a(I5
(lp3077
Vthey relied
p3078
aVtheir relied
p3079
atp3080
a(I5
(lp3081
Vthey reduce
p3082
aVtheir reduce
p3083
atp3084
a(I5
(lp3085
Vthey record
p3086
aVtheir record
p3087
atp3088
a(I5
(lp3089
Vthey notice
p3090
aVtheir notice
p3091
atp3092
a(I5
(lp3093
Vthey mustn
p3094
aVtheir mustn
p3095
atp3096
a(I5
(lp3097
Vthey melt
p3098
aVtheir melt
p3099
atp3100
a(I5
(lp3101
Vthey match
p3102
aVtheir match
p3103
atp3104
a(I5
(lp3105
Vthey invest
p3106
aVtheir invest
p3107
atp3108
a(I5
(lp3109
Vthey interfere
p3110
aVtheir interfere
p3111
atp3112
a(I5
(lp3113
Vthey inherit
p3114
aVtheir inherit
p3115
atp3116
a(I5
(lp3117
Vthey imply
p3118
aVtheir imply
p3119
atp3120
a(I5
(lp3121
Vthey file
p3122
aVtheir file
p3123
atp3124
a(I5
(lp3125
Vthey expand
p3126
aVtheir expand
p3127
atp3128
a(I5
(lp3129
Vthey examine
p3130
aVtheir examine
p3131
atp3132
a(I5
(lp3133
Vthey emphasize
p3134
aVtheir emphasize
p3135
atp3136
a(I5
(lp3137
Vthey emerge
p3138
aVtheir emerge
p3139
atp3140
a(I5
(lp3141
Vthey demonstrate
p3142
aVtheir demonstrate
p3143
atp3144
a(I5
(lp3145
Vthey commit
p3146
aVtheir commit
p3147
atp3148
a(I5
(lp3149
Vthey challenge
p3150
aVtheir challenge
p3151
atp3152
a(I5
(lp3153
Vthey attach
p3154
aVtheir attach
p3155
atp3156
a(I5
(lp3157
Vthey aint
p3158
aVtheir aint
p3159
atp3160
a(I5
(lp3161
Vthem remember
p3162
aVtheir remember
p3163
atp3164
a(I5
(lp3165
Vthem burn
p3166
aVtheir burn
p3167
atp3168
a(I5
(lp3169
Vthem appear
p3170
aVtheir appear
p3171
atp3172
a(I5
(lp3173
Vit include
p3174
aVits include
p3175
atp3176
a(I5
(lp3177
Vhe cross
p3178
aVhis cross
p3179
atp3180
a(I4
(lp3181
Vyou yell
p3182
aVyour yell
p3183
atp3184
a(I4
(lp3185
Vyou wasn
p3186
aVyour wasn
p3187
atp3188
a(I4
(lp3189
Vyou tune
p3190
aVyour tune
p3191
atp3192
a(I4
(lp3193
Vyou trace
p3194
aVyour trace
p3195
atp3196
a(I4
(lp3197
Vyou swing
p3198
aVyour swing
p3199
atp3200
a(I4
(lp3201
Vyou suffer
p3202
aVyour suffer
p3203
atp3204
a(I4
(lp3205
Vyou stumble
p3206
aVyour stumble
p3207
atp3208
a(I4
(lp3209
Vyou spread
p3210
aVyour spread
p3211
atp3212
a(I4
(lp3213
Vyou spell
p3214
aVyour spell
p3215
atp3216
a(I4
(lp3217
Vyou speculate
p3218
aVyour speculate
p3219
atp3220
a(I4
(lp3221
Vyou slide
p3222
aVyour slide
p3223
atp3224
a(I4
(lp3225
Vyou shove
p3226
aVyour shove
p3227
atp3228
a(I4
(lp3229
Vyou shout
p3230
aVyour shout
p3231
atp3232
a(I4
(lp3233
Vyou review
p3234
aVyour review
p3235
atp3236
a(I4
(lp3237
Vyou propose
p3238
aVyour propose
p3239
atp3240
a(I4
(lp3241
Vyou proceed
p3242
aVyour proceed
p3243
atp3244
a(I4
(lp3245
Vyou pedal
p3246
aVyour pedal
p3247
atp3248
a(I4
(lp3249
Vyou pause
p3250
aVyour pause
p3251
atp3252
a(I4
(lp3253
Vyou maintain
p3254
aVyour maintain
p3255
atp3256
a(I4
(lp3257
Vyou loosen
p3258
aVyour loosen
p3259
atp3260
a(I4
(lp3261
Vyou kill
p3262
aVyour kill
p3263
atp3264
a(I4
(lp3265
Vyou infer
p3266
aVyour infer
p3267
atp3268
a(I4
(lp3269
Vyou indicate
p3270
aVyour indicate
p3271
atp3272
a(I4
(lp3273
Vyou hop
p3274
aVyour hop
p3275
atp3276
a(I4
(lp3277
Vyou hammer
p3278
aVyour hammer
p3279
atp3280
a(I4
(lp3281
Vyou fold
p3282
aVyour fold
p3283
atp3284
a(I4
(lp3285
Vyou engage
p3286
aVyour engage
p3287
atp3288
a(I4
(lp3289
Vyou devote
p3290
aVyour devote
p3291
atp3292
a(I4
(lp3293
Vyou crawl
p3294
aVyour crawl
p3295
atp3296
a(I4
(lp3297
Vyou cope
p3298
aVyour cope
p3299
atp3300
a(I4
(lp3301
Vyou consult
p3302
aVyour consult
p3303
atp3304
a(I4
(lp3305
Vyou clear
p3306
aVyour clear
p3307
atp3308
a(I4
(lp3309
Vyou cheer
p3310
aVyour cheer
p3311
atp3312
a(I4
(lp3313
Vyou charge
p3314
aVyour charge
p3315
atp3316
a(I4
(lp3317
Vyou cause
p3318
aVyour cause
p3319
atp3320
a(I4
(lp3321
Vyou bear
p3322
aVyour bear
p3323
atp3324
a(I4
(lp3325
Vyou attend
p3326
aVyour attend
p3327
atp3328
a(I4
(lp3329
Vyou adjust
p3330
aVyour adjust
p3331
atp3332
a(I4
(lp3333
Vyou achieve
p3334
aVyour achieve
p3335
atp3336
a(I4
(lp3337
Vwe worry
p3338
aVours worry
p3339
atp3340
a(I4
(lp3341
Vwe wonder
p3342
aVours wonder
p3343
atp3344
a(I4
(lp3345
Vwe wake
p3346
aVours wake
p3347
atp3348
a(I4
(lp3349
Vwe vote
p3350
aVours vote
p3351
atp3352
a(I4
(lp3353
Vwe trade
p3354
aVours trade
p3355
atp3356
a(I4
(lp3357
Vwe teach
p3358
aVours teach
p3359
atp3360
a(I4
(lp3361
Vwe swam
p3362
aVours swam
p3363
atp3364
a(I4
(lp3365
Vwe suffer
p3366
aVours suffer
p3367
atp3368
a(I4
(lp3369
Vwe store
p3370
aVours store
p3371
atp3372
a(I4
(lp3373
Vwe step
p3374
aVours step
p3375
atp3376
a(I4
(lp3377
Vwe specify
p3378
aVours specify
p3379
atp3380
a(I4
(lp3381
Vwe smile
p3382
aVours smile
p3383
atp3384
a(I4
(lp3385
Vwe search
p3386
aVours search
p3387
atp3388
a(I4
(lp3389
Vwe represent
p3390
aVours represent
p3391
atp3392
a(I4
(lp3393
Vwe propose
p3394
aVours propose
p3395
atp3396
a(I4
(lp3397
Vwe prepare
p3398
aVours prepare
p3399
atp3400
a(I4
(lp3401
Vwe plot
p3402
aVours plot
p3403
atp3404
a(I4
(lp3405
Vwe paint
p3406
aVours paint
p3407
atp3408
a(I4
(lp3409
Vwe open
p3410
aVours open
p3411
atp3412
a(I4
(lp3413
Vwe label
p3414
aVours label
p3415
atp3416
a(I4
(lp3417
Vwe kill
p3418
aVours kill
p3419
atp3420
a(I4
(lp3421
Vwe inhale
p3422
aVours inhale
p3423
atp3424
a(I4
(lp3425
Vwe inhabit
p3426
aVours inhabit
p3427
atp3428
a(I4
(lp3429
Vwe import
p3430
aVours import
p3431
atp3432
a(I4
(lp3433
Vwe gather
p3434
aVours gather
p3435
atp3436
a(I4
(lp3437
Vwe gain
p3438
aVours gain
p3439
atp3440
a(I4
(lp3441
Vwe fix
p3442
aVours fix
p3443
atp3444
a(I4
(lp3445
Vwe fill
p3446
aVours fill
p3447
atp3448
a(I4
(lp3449
Vwe figure
p3450
aVours figure
p3451
atp3452
a(I4
(lp3453
Vwe fall
p3454
aVours fall
p3455
atp3456
a(I4
(lp3457
Vwe exhale
p3458
aVours exhale
p3459
atp3460
a(I4
(lp3461
Vwe elect
p3462
aVours elect
p3463
atp3464
a(I4
(lp3465
Vwe earn
p3466
aVours earn
p3467
atp3468
a(I4
(lp3469
Vwe dare
p3470
aVours dare
p3471
atp3472
a(I4
(lp3473
Vwe cook
p3474
aVours cook
p3475
atp3476
a(I4
(lp3477
Vwe arrive
p3478
aVours arrive
p3479
atp3480
a(I4
(lp3481
Vwe adopt
p3482
aVours adopt
p3483
atp3484
a(I4
(lp3485
Vwe account
p3486
aVours account
p3487
atp3488
a(I4
(lp3489
Vus don
p3490
aVour don
p3491
atp3492
a(I4
(lp3493
Vus continue
p3494
aVour continue
p3495
atp3496
a(I4
(lp3497
Vthey yield
p3498
aVtheir yield
p3499
atp3500
a(I4
(lp3501
Vthey wash
p3502
aVtheir wash
p3503
atp3504
a(I4
(lp3505
Vthey vibrate
p3506
aVtheir vibrate
p3507
atp3508
a(I4
(lp3509
Vthey toss
p3510
aVtheir toss
p3511
atp3512
a(I4
(lp3513
Vthey survive
p3514
aVtheir survive
p3515
atp3516
a(I4
(lp3517
Vthey surround
p3518
aVtheir surround
p3519
atp3520
a(I4
(lp3521
Vthey suffer
p3522
aVtheir suffer
p3523
atp3524
a(I4
(lp3525
Vthey strive
p3526
aVtheir strive
p3527
atp3528
a(I4
(lp3529
Vthey spoil
p3530
aVtheir spoil
p3531
atp3532
a(I4
(lp3533
Vthey smile
p3534
aVtheir smile
p3535
atp3536
a(I4
(lp3537
Vthey shoot
p3538
aVtheir shoot
p3539
atp3540
a(I4
(lp3541
Vthey recommend
p3542
aVtheir recommend
p3543
atp3544
a(I4
(lp3545
Vthey process
p3546
aVtheir process
p3547
atp3548
a(I4
(lp3549
Vthey pour
p3550
aVtheir pour
p3551
atp3552
a(I4
(lp3553
Vthey originated
p3554
aVtheir originated
p3555
atp3556
a(I4
(lp3557
Vthey organize
p3558
aVtheir organize
p3559
atp3560
a(I4
(lp3561
Vthey marry
p3562
aVtheir marry
p3563
atp3564
a(I4
(lp3565
Vthey locate
p3566
aVtheir locate
p3567
atp3568
a(I4
(lp3569
Vthey lend
p3570
aVtheir lend
p3571
atp3572
a(I4
(lp3573
Vthey investigate
p3574
aVtheir investigate
p3575
atp3576
a(I4
(lp3577
Vthey invade
p3578
aVtheir invade
p3579
atp3580
a(I4
(lp3581
Vthey inhabit
p3582
aVtheir inhabit
p3583
atp3584
a(I4
(lp3585
Vthey handle
p3586
aVtheir handle
p3587
atp3588
a(I4
(lp3589
Vthey grind
p3590
aVtheir grind
p3591
atp3592
a(I4
(lp3593
Vthey greet
p3594
aVtheir greet
p3595
atp3596
a(I4
(lp3597
Vthey explain
p3598
aVtheir explain
p3599
atp3600
a(I4
(lp3601
Vthey emit
p3602
aVtheir emit
p3603
atp3604
a(I4
(lp3605
Vthey elect
p3606
aVtheir elect
p3607
atp3608
a(I4
(lp3609
Vthey drop
p3610
aVtheir drop
p3611
atp3612
a(I4
(lp3613
Vthey dissolve
p3614
aVtheir dissolve
p3615
atp3616
a(I4
(lp3617
Vthey deserve
p3618
aVtheir deserve
p3619
atp3620
a(I4
(lp3621
Vthey dance
p3622
aVtheir dance
p3623
atp3624
a(I4
(lp3625
Vthey cooperate
p3626
aVtheir cooperate
p3627
atp3628
a(I4
(lp3629
Vthey consume
p3630
aVtheir consume
p3631
atp3632
a(I4
(lp3633
Vthey constitute
p3634
aVtheir constitute
p3635
atp3636
a(I4
(lp3637
Vthey bump
p3638
aVtheir bump
p3639
atp3640
a(I4
(lp3641
Vthey assist
p3642
aVtheir assist
p3643
atp3644
a(I4
(lp3645
Vthey achieve
p3646
aVtheir achieve
p3647
atp3648
a(I4
(lp3649
Vthem try
p3650
aVtheir try
p3651
atp3652
a(I4
(lp3653
Vthem swim
p3654
aVtheir swim
p3655
atp3656
a(I4
(lp3657
Vthem meet
p3658
aVtheir meet
p3659
atp3660
a(I4
(lp3661
Vthem hope
p3662
aVtheir hope
p3663
atp3664
a(I4
(lp3665
Vthem contain
p3666
aVtheir contain
p3667
atp3668
a(I4
(lp3669
Vthem believe
p3670
aVtheir believe
p3671
atp3672
a(I4
(lp3673
Vme swim
p3674
aVmy swim
p3675
atp3676
a(I4
(lp3677
Vme sit
p3678
aVmy sit
p3679
atp3680
a(I4
(lp3681
Vit warn
p3682
aVits warn
p3683
atp3684
a(I4
(lp3685
Vit swim
p3686
aVits swim
p3687
atp3688
a(I4
(lp3689
Vhe warn
p3690
aVhis warn
p3691
atp3692
a(I3
(lp3693
Vyou waste
p3694
aVyour waste
p3695
atp3696
a(I3
(lp3697
Vyou wander
p3698
aVyour wander
p3699
atp3700
a(I3
(lp3701
Vyou volunteer
p3702
aVyour volunteer
p3703
atp3704
a(I3
(lp3705
Vyou tease
p3706
aVyour tease
p3707
atp3708
a(I3
(lp3709
Vyou tear
p3710
aVyour tear
p3711
atp3712
a(I3
(lp3713
Vyou tap
p3714
aVyour tap
p3715
atp3716
a(I3
(lp3717
Vyou tackle
p3718
aVyour tackle
p3719
atp3720
a(I3
(lp3721
Vyou swear
p3722
aVyour swear
p3723
atp3724
a(I3
(lp3725
Vyou summarize
p3726
aVyour summarize
p3727
atp3728
a(I3
(lp3729
Vyou succeed
p3730
aVyour succeed
p3731
atp3732
a(I3
(lp3733
Vyou subtract
p3734
aVyour subtract
p3735
atp3736
a(I3
(lp3737
Vyou strike
p3738
aVyour strike
p3739
atp3740
a(I3
(lp3741
Vyou sharpen
p3742
aVyour sharpen
p3743
atp3744
a(I3
(lp3745
Vyou shape
p3746
aVyour shape
p3747
atp3748
a(I3
(lp3749
Vyou separate
p3750
aVyour separate
p3751
atp3752
a(I3
(lp3753
Vyou scream
p3754
aVyour scream
p3755
atp3756
a(I3
(lp3757
Vyou row
p3758
aVyour row
p3759
atp3760
a(I3
(lp3761
Vyou remind
p3762
aVyour remind
p3763
atp3764
a(I3
(lp3765
Vyou radiate
p3766
aVyour radiate
p3767
atp3768
a(I3
(lp3769
Vyou punch
p3770
aVyour punch
p3771
atp3772
a(I3
(lp3773
Vyou plunge
p3774
aVyour plunge
p3775
atp3776
a(I3
(lp3777
Vyou peel
p3778
aVyour peel
p3779
atp3780
a(I3
(lp3781
Vyou ok
p3782
aVyour ok
p3783
atp3784
a(I3
(lp3785
Vyou memorize
p3786
aVyour memorize
p3787
atp3788
a(I3
(lp3789
Vyou leap
p3790
aVyour leap
p3791
atp3792
a(I3
(lp3793
Vyou kick
p3794
aVyour kick
p3795
atp3796
a(I3
(lp3797
Vyou jest
p3798
aVyour jest
p3799
atp3800
a(I3
(lp3801
Vyou hire
p3802
aVyour hire
p3803
atp3804
a(I3
(lp3805
Vyou harm
p3806
aVyour harm
p3807
atp3808
a(I3
(lp3809
Vyou graduate
p3810
aVyour graduate
p3811
atp3812
a(I3
(lp3813
Vyou git
p3814
aVyour git
p3815
atp3816
a(I3
(lp3817
Vyou fool
p3818
aVyour fool
p3819
atp3820
a(I3
(lp3821
Vyou float
p3822
aVyour float
p3823
atp3824
a(I3
(lp3825
Vyou establish
p3826
aVyour establish
p3827
atp3828
a(I3
(lp3829
Vyou employ
p3830
aVyour employ
p3831
atp3832
a(I3
(lp3833
Vyou doubt
p3834
aVyour doubt
p3835
atp3836
a(I3
(lp3837
Vyou cough
p3838
aVyour cough
p3839
atp3840
a(I3
(lp3841
Vyou compose
p3842
aVyour compose
p3843
atp3844
a(I3
(lp3845
Vyou complain
p3846
aVyour complain
p3847
atp3848
a(I3
(lp3849
Vyou cheat
p3850
aVyour cheat
p3851
atp3852
a(I3
(lp3853
Vyou assign
p3854
aVyour assign
p3855
atp3856
a(I3
(lp3857
Vyou appear
p3858
aVyour appear
p3859
atp3860
a(I3
(lp3861
Vyou announce
p3862
aVyour announce
p3863
atp3864
a(I3
(lp3865
Vyou affect
p3866
aVyour affect
p3867
atp3868
a(I3
(lp3869
Vyou admit
p3870
aVyour admit
p3871
atp3872
a(I3
(lp3873
Vwe wound
p3874
aVours wound
p3875
atp3876
a(I3
(lp3877
Vwe win
p3878
aVours win
p3879
atp3880
a(I3
(lp3881
Vwe wait
p3882
aVours wait
p3883
atp3884
a(I3
(lp3885
Vwe value
p3886
aVours value
p3887
atp3888
a(I3
(lp3889
Vwe treat
p3890
aVours treat
p3891
atp3892
a(I3
(lp3893
Vwe transform
p3894
aVours transform
p3895
atp3896
a(I3
(lp3897
Vwe stress
p3898
aVours stress
p3899
atp3900
a(I3
(lp3901
Vwe speed
p3902
aVours speed
p3903
atp3904
a(I3
(lp3905
Vwe solve
p3906
aVours solve
p3907
atp3908
a(I3
(lp3909
Vwe sleep
p3910
aVours sleep
p3911
atp3912
a(I3
(lp3913
Vwe skate
p3914
aVours skate
p3915
atp3916
a(I3
(lp3917
Vwe save
p3918
aVours save
p3919
atp3920
a(I3
(lp3921
Vwe sail
p3922
aVours sail
p3923
atp3924
a(I3
(lp3925
Vwe roll
p3926
aVours roll
p3927
atp3928
a(I3
(lp3929
Vwe reserve
p3930
aVours reserve
p3931
atp3932
a(I3
(lp3933
Vwe regard
p3934
aVours regard
p3935
atp3936
a(I3
(lp3937
Vwe refuse
p3938
aVours refuse
p3939
atp3940
a(I3
(lp3941
Vwe record
p3942
aVours record
p3943
atp3944
a(I3
(lp3945
Vwe raise
p3946
aVours raise
p3947
atp3948
a(I3
(lp3949
Vwe point
p3950
aVours point
p3951
atp3952
a(I3
(lp3953
Vwe perform
p3954
aVours perform
p3955
atp3956
a(I3
(lp3957
Vwe park
p3958
aVours park
p3959
atp3960
a(I3
(lp3961
Vwe needn
p3962
aVours needn
p3963
atp3964
a(I3
(lp3965
Vwe modify
p3966
aVours modify
p3967
atp3968
a(I3
(lp3969
Vwe miss
p3970
aVours miss
p3971
atp3972
a(I3
(lp3973
Vwe mine
p3974
aVours mine
p3975
atp3976
a(I3
(lp3977
Vwe mention
p3978
aVours mention
p3979
atp3980
a(I3
(lp3981
Vwe lift
p3982
aVours lift
p3983
atp3984
a(I3
(lp3985
Vwe lend
p3986
aVours lend
p3987
atp3988
a(I3
(lp3989
Vwe interrupt
p3990
aVours interrupt
p3991
atp3992
a(I3
(lp3993
Vwe interpret
p3994
aVours interpret
p3995
atp3996
a(I3
(lp3997
Vwe influence
p3998
aVours influence
p3999
atp4000
a(I3
(lp4001
Vwe hurry
p4002
aVours hurry
p4003
atp4004
a(I3
(lp4005
Vwe handle
p4006
aVours handle
p4007
atp4008
a(I3
(lp4009
Vwe guarantee
p4010
aVours guarantee
p4011
atp4012
a(I3
(lp4013
Vwe group
p4014
aVours group
p4015
atp4016
a(I3
(lp4017
Vwe form
p4018
aVours form
p4019
atp4020
a(I3
(lp4021
Vwe fit
p4022
aVours fit
p4023
atp4024
a(I3
(lp4025
Vwe finish
p4026
aVours finish
p4027
atp4028
a(I3
(lp4029
Vwe fear
p4030
aVours fear
p4031
atp4032
a(I3
(lp4033
Vwe extend
p4034
aVours extend
p4035
atp4036
a(I3
(lp4037
Vwe establish
p4038
aVours establish
p4039
atp4040
a(I3
(lp4041
Vwe end
p4042
aVours end
p4043
atp4044
a(I3
(lp4045
Vwe dry
p4046
aVours dry
p4047
atp4048
a(I3
(lp4049
Vwe drop
p4050
aVours drop
p4051
atp4052
a(I3
(lp4053
Vwe distinguish
p4054
aVours distinguish
p4055
atp4056
a(I3
(lp4057
Vwe dissolve
p4058
aVours dissolve
p4059
atp4060
a(I3
(lp4061
Vwe determine
p4062
aVours determine
p4063
atp4064
a(I3
(lp4065
Vwe derive
p4066
aVours derive
p4067
atp4068
a(I3
(lp4069
Vwe demand
p4070
aVours demand
p4071
atp4072
a(I3
(lp4073
Vwe declare
p4074
aVours declare
p4075
atp4076
a(I3
(lp4077
Vwe control
p4078
aVours control
p4079
atp4080
a(I3
(lp4081
Vwe contemplate
p4082
aVours contemplate
p4083
atp4084
a(I3
(lp4085
Vwe connect
p4086
aVours connect
p4087
atp4088
a(I3
(lp4089
Vwe conduct
p4090
aVours conduct
p4091
atp4092
a(I3
(lp4093
Vwe combine
p4094
aVours combine
p4095
atp4096
a(I3
(lp4097
Vwe claim
p4098
aVours claim
p4099
atp4100
a(I3
(lp4101
Vwe calculate
p4102
aVours calculate
p4103
atp4104
a(I3
(lp4105
Vwe burn
p4106
aVours burn
p4107
atp4108
a(I3
(lp4109
Vwe borrow
p4110
aVours borrow
p4111
atp4112
a(I3
(lp4113
Vwe avoid
p4114
aVours avoid
p4115
atp4116
a(I3
(lp4117
Vwe attribute
p4118
aVours attribute
p4119
atp4120
a(I3
(lp4121
Vwe attend
p4122
aVours attend
p4123
atp4124
a(I3
(lp4125
Vwe attach
p4126
aVours attach
p4127
atp4128
a(I3
(lp4129
Vwe argue
p4130
aVours argue
p4131
atp4132
a(I3
(lp4133
Vwe appear
p4134
aVours appear
p4135
atp4136
a(I3
(lp4137
Vwe age
p4138
aVours age
p4139
atp4140
a(I3
(lp4141
Vwe affect
p4142
aVours affect
p4143
atp4144
a(I3
(lp4145
Vwe admire
p4146
aVours admire
p4147
atp4148
a(I3
(lp4149
Vwe acquire
p4150
aVours acquire
p4151
atp4152
a(I3
(lp4153
Vwe acknowledge
p4154
aVours acknowledge
p4155
atp4156
a(I3
(lp4157
Vwe absorb
p4158
aVours absorb
p4159
atp4160
a(I3
(lp4161
Vus wonder
p4162
aVour wonder
p4163
atp4164
a(I3
(lp4165
Vus spend
p4166
aVour spend
p4167
atp4168
a(I3
(lp4169
Vus help
p4170
aVour help
p4171
atp4172
a(I3
(lp4173
Vus divide
p4174
aVour divide
p4175
atp4176
a(I3
(lp4177
Vthey wiggle
p4178
aVtheir wiggle
p4179
atp4180
a(I3
(lp4181
Vthey swallow
p4182
aVtheir swallow
p4183
atp4184
a(I3
(lp4185
Vthey succeed
p4186
aVtheir succeed
p4187
atp4188
a(I3
(lp4189
Vthey specialize
p4190
aVtheir specialize
p4191
atp4192
a(I3
(lp4193
Vthey slip
p4194
aVtheir slip
p4195
atp4196
a(I3
(lp4197
Vthey sign
p4198
aVtheir sign
p4199
atp4200
a(I3
(lp4201
Vthey shake
p4202
aVtheir shake
p4203
atp4204
a(I3
(lp4205
Vthey seal
p4206
aVtheir seal
p4207
atp4208
a(I3
(lp4209
Vthey roam
p4210
aVtheir roam
p4211
atp4212
a(I3
(lp4213
Vthey revise
p4214
aVtheir revise
p4215
atp4216
a(I3
(lp4217
Vthey review
p4218
aVtheir review
p4219
atp4220
a(I3
(lp4221
Vthey retire
p4222
aVtheir retire
p4223
atp4224
a(I3
(lp4225
Vthey retain
p4226
aVtheir retain
p4227
atp4228
a(I3
(lp4229
Vthey replace
p4230
aVtheir replace
p4231
atp4232
a(I3
(lp4233
Vthey repeat
p4234
aVtheir repeat
p4235
atp4236
a(I3
(lp4237
Vthey render
p4238
aVtheir render
p4239
atp4240
a(I3
(lp4241
Vthey relax
p4242
aVtheir relax
p4243
atp4244
a(I3
(lp4245
Vthey reject
p4246
aVtheir reject
p4247
atp4248
a(I3
(lp4249
Vthey regulate
p4250
aVtheir regulate
p4251
atp4252
a(I3
(lp4253
Vthey refuse
p4254
aVtheir refuse
p4255
atp4256
a(I3
(lp4257
Vthey quit
p4258
aVtheir quit
p4259
atp4260
a(I3
(lp4261
Vthey project
p4262
aVtheir project
p4263
atp4264
a(I3
(lp4265
Vthey pretend
p4266
aVtheir pretend
p4267
atp4268
a(I3
(lp4269
Vthey pause
p4270
aVtheir pause
p4271
atp4272
a(I3
(lp4273
Vthey parallel
p4274
aVtheir parallel
p4275
atp4276
a(I3
(lp4277
Vthey owe
p4278
aVtheir owe
p4279
atp4280
a(I3
(lp4281
Vthey originate
p4282
aVtheir originate
p4283
atp4284
a(I3
(lp4285
Vthey orbit
p4286
aVtheir orbit
p4287
atp4288
a(I3
(lp4289
Vthey obey
p4290
aVtheir obey
p4291
atp4292
a(I3
(lp4293
Vthey multiply
p4294
aVtheir multiply
p4295
atp4296
a(I3
(lp4297
Vthey mix
p4298
aVtheir mix
p4299
atp4300
a(I3
(lp4301
Vthey migrate
p4302
aVtheir migrate
p4303
atp4304
a(I3
(lp4305
Vthey limit
p4306
aVtheir limit
p4307
atp4308
a(I3
(lp4309
Vthey induce
p4310
aVtheir induce
p4311
atp4312
a(I3
(lp4313
Vthey improve
p4314
aVtheir improve
p4315
atp4316
a(I3
(lp4317
Vthey impress
p4318
aVtheir impress
p4319
atp4320
a(I3
(lp4321
Vthey ignore
p4322
aVtheir ignore
p4323
atp4324
a(I3
(lp4325
Vthey graduate
p4326
aVtheir graduate
p4327
atp4328
a(I3
(lp4329
Vthey furnish
p4330
aVtheir furnish
p4331
atp4332
a(I3
(lp4333
Vthey explode
p4334
aVtheir explode
p4335
atp4336
a(I3
(lp4337
Vthey erupt
p4338
aVtheir erupt
p4339
atp4340
a(I3
(lp4341
Vthey engage
p4342
aVtheir engage
p4343
atp4344
a(I3
(lp4345
Vthey encourage
p4346
aVtheir encourage
p4347
atp4348
a(I3
(lp4349
Vthey employ
p4350
aVtheir employ
p4351
atp4352
a(I3
(lp4353
Vthey drift
p4354
aVtheir drift
p4355
atp4356
a(I3
(lp4357
Vthey disappear
p4358
aVtheir disappear
p4359
atp4360
a(I3
(lp4361
Vthey disagree
p4362
aVtheir disagree
p4363
atp4364
a(I3
(lp4365
Vthey devote
p4366
aVtheir devote
p4367
atp4368
a(I3
(lp4369
Vthey destroy
p4370
aVtheir destroy
p4371
atp4372
a(I3
(lp4373
Vthey descend
p4374
aVtheir descend
p4375
atp4376
a(I3
(lp4377
Vthey deliver
p4378
aVtheir deliver
p4379
atp4380
a(I3
(lp4381
Vthey defend
p4382
aVtheir defend
p4383
atp4384
a(I3
(lp4385
Vthey correspond
p4386
aVtheir correspond
p4387
atp4388
a(I3
(lp4389
Vthey convey
p4390
aVtheir convey
p4391
atp4392
a(I3
(lp4393
Vthey contend
p4394
aVtheir contend
p4395
atp4396
a(I3
(lp4397
Vthey connect
p4398
aVtheir connect
p4399
atp4400
a(I3
(lp4401
Vthey concentrate
p4402
aVtheir concentrate
p4403
atp4404
a(I3
(lp4405
Vthey complain
p4406
aVtheir complain
p4407
atp4408
a(I3
(lp4409
Vthey cling
p4410
aVtheir cling
p4411
atp4412
a(I3
(lp4413
Vthey attract
p4414
aVtheir attract
p4415
atp4416
a(I3
(lp4417
Vthey approve
p4418
aVtheir approve
p4419
atp4420
a(I3
(lp4421
Vthem speak
p4422
aVtheir speak
p4423
atp4424
a(I3
(lp4425
Vthem lie
p4426
aVtheir lie
p4427
atp4428
a(I3
(lp4429
Vthem henry
p4430
aVtheir henry
p4431
atp4432
a(I3
(lp4433
Vthem communicate
p4434
aVtheir communicate
p4435
atp4436
a(I3
(lp4437
Vme tremble
p4438
aVmy tremble
p4439
atp4440
a(I3
(lp4441
Vme steve
p4442
aVmy steve
p4443
atp4444
a(I3
(lp4445
Vme beg
p4446
aVmy beg
p4447
atp4448
a(I3
(lp4449
Vit suggest
p4450
aVits suggest
p4451
atp4452
a(I3
(lp4453
Vit strike
p4454
aVits strike
p4455
atp4456
a(I3
(lp4457
Vit represent
p4458
aVits represent
p4459
atp4460
a(I3
(lp4461
Vit remain
p4462
aVits remain
p4463
atp4464
a(I3
(lp4465
Vit regulate
p4466
aVits regulate
p4467
atp4468
a(I3
(lp4469
Vit depend
p4470
aVits depend
p4471
atp4472
a(I3
(lp4473
Vhim suffer
p4474
aVhis suffer
p4475
atp4476
a(I3
(lp4477
Vhim explain
p4478
aVhis explain
p4479
atp4480
a(I3
(lp4481
Vhim believe
p4482
aVhis believe
p4483
atp4484
a(I3
(lp4485
Vhe speak
p4486
aVhis speak
p4487
atp4488
a(I3
(lp4489
Vhe remember
p4490
aVhis remember
p4491
atp4492
a(I3
(lp4493
Vhe miss
p4494
aVhis miss
p4495
atp4496
a(I2
(lp4497
Vyou yawn
p4498
aVyour yawn
p4499
atp4500
a(I2
(lp4501
Vyou wrap
p4502
aVyour wrap
p4503
atp4504
a(I2
(lp4505
Vyou withdraw
p4506
aVyour withdraw
p4507
atp4508
a(I2
(lp4509
Vyou wave
p4510
aVyour wave
p4511
atp4512
a(I2
(lp4513
Vyou visualize
p4514
aVyour visualize
p4515
atp4516
a(I2
(lp4517
Vyou undertake
p4518
aVyour undertake
p4519
atp4520
a(I2
(lp4521
Vyou toss
p4522
aVyour toss
p4523
atp4524
a(I2
(lp4525
Vyou tilt
p4526
aVyour tilt
p4527
atp4528
a(I2
(lp4529
Vyou tighten
p4530
aVyour tighten
p4531
atp4532
a(I2
(lp4533
Vyou suck
p4534
aVyour suck
p4535
atp4536
a(I2
(lp4537
Vyou substitute
p4538
aVyour substitute
p4539
atp4540
a(I2
(lp4541
Vyou submit
p4542
aVyour submit
p4543
atp4544
a(I2
(lp4545
Vyou strive
p4546
aVyour strive
p4547
atp4548
a(I2
(lp4549
Vyou stray
p4550
aVyour stray
p4551
atp4552
a(I2
(lp4553
Vyou straighten
p4554
aVyour straighten
p4555
atp4556
a(I2
(lp4557
Vyou stink
p4558
aVyour stink
p4559
atp4560
a(I2
(lp4561
Vyou squash
p4562
aVyour squash
p4563
atp4564
a(I2
(lp4565
Vyou sprinkle
p4566
aVyour sprinkle
p4567
atp4568
a(I2
(lp4569
Vyou spit
p4570
aVyour spit
p4571
atp4572
a(I2
(lp4573
Vyou spin
p4574
aVyour spin
p4575
atp4576
a(I2
(lp4577
Vyou spill
p4578
aVyour spill
p4579
atp4580
a(I2
(lp4581
Vyou snap
p4582
aVyour snap
p4583
atp4584
a(I2
(lp4585
Vyou shine
p4586
aVyour shine
p4587
atp4588
a(I2
(lp4589
Vyou rush
p4590
aVyour rush
p4591
atp4592
a(I2
(lp4593
Vyou rotate
p4594
aVyour rotate
p4595
atp4596
a(I2
(lp4597
Vyou reveal
p4598
aVyour reveal
p4599
atp4600
a(I2
(lp4601
Vyou reread
p4602
aVyour reread
p4603
atp4604
a(I2
(lp4605
Vyou require
p4606
aVyour require
p4607
atp4608
a(I2
(lp4609
Vyou represent
p4610
aVyour represent
p4611
atp4612
a(I2
(lp4613
Vyou rely
p4614
aVyour rely
p4615
atp4616
a(I2
(lp4617
Vyou refuse
p4618
aVyour refuse
p4619
atp4620
a(I2
(lp4621
Vyou recommend
p4622
aVyour recommend
p4623
atp4624
a(I2
(lp4625
Vyou pump
p4626
aVyour pump
p4627
atp4628
a(I2
(lp4629
Vyou pour
p4630
aVyour pour
p4631
atp4632
a(I2
(lp4633
Vyou persist
p4634
aVyour persist
p4635
atp4636
a(I2
(lp4637
Vyou knock
p4638
aVyour knock
p4639
atp4640
a(I2
(lp4641
Vyou investigate
p4642
aVyour investigate
p4643
atp4644
a(I2
(lp4645
Vyou interact
p4646
aVyour interact
p4647
atp4648
a(I2
(lp4649
Vyou idiot
p4650
aVyour idiot
p4651
atp4652
a(I2
(lp4653
Vyou hesitate
p4654
aVyour hesitate
p4655
atp4656
a(I2
(lp4657
Vyou haunt
p4658
aVyour haunt
p4659
atp4660
a(I2
(lp4661
Vyou groan
p4662
aVyour groan
p4663
atp4664
a(I2
(lp4665
Vyou fulfill
p4666
aVyour fulfill
p4667
atp4668
a(I2
(lp4669
Vyou flush
p4670
aVyour flush
p4671
atp4672
a(I2
(lp4673
Vyou fit
p4674
aVyour fit
p4675
atp4676
a(I2
(lp4677
Vyou dwell
p4678
aVyour dwell
p4679
atp4680
a(I2
(lp4681
Vyou duck
p4682
aVyour duck
p4683
atp4684
a(I2
(lp4685
Vyou double
p4686
aVyour double
p4687
atp4688
a(I2
(lp4689
Vyou disagree
p4690
aVyour disagree
p4691
atp4692
a(I2
(lp4693
Vyou deprive
p4694
aVyour deprive
p4695
atp4696
a(I2
(lp4697
Vyou depress
p4698
aVyour depress
p4699
atp4700
a(I2
(lp4701
Vyou demand
p4702
aVyour demand
p4703
atp4704
a(I2
(lp4705
Vyou curl
p4706
aVyour curl
p4707
atp4708
a(I2
(lp4709
Vyou creep
p4710
aVyour creep
p4711
atp4712
a(I2
(lp4713
Vyou cool
p4714
aVyour cool
p4715
atp4716
a(I2
(lp4717
Vyou construct
p4718
aVyour construct
p4719
atp4720
a(I2
(lp4721
Vyou comin
p4722
aVyour comin
p4723
atp4724
a(I2
(lp4725
Vyou characterize
p4726
aVyour characterize
p4727
atp4728
a(I2
(lp4729
Vyou carve
p4730
aVyour carve
p4731
atp4732
a(I2
(lp4733
Vyou bury
p4734
aVyour bury
p4735
atp4736
a(I2
(lp4737
Vyou buck
p4738
aVyour buck
p4739
atp4740
a(I2
(lp4741
Vyou blame
p4742
aVyour blame
p4743
atp4744
a(I2
(lp4745
Vyou attract
p4746
aVyour attract
p4747
atp4748
a(I2
(lp4749
Vyou attach
p4750
aVyour attach
p4751
atp4752
a(I2
(lp4753
Vyou argue
p4754
aVyour argue
p4755
atp4756
a(I2
(lp4757
Vyou anticipate
p4758
aVyour anticipate
p4759
atp4760
a(I2
(lp4761
Vyou aint
p4762
aVyour aint
p4763
atp4764
a(I2
(lp4765
Vyou adopt
p4766
aVyour adopt
p4767
atp4768
a(I2
(lp4769
Vyou accomplish
p4770
aVyour accomplish
p4771
atp4772
a(I2
(lp4773
Vwe wrap
p4774
aVours wrap
p4775
atp4776
a(I2
(lp4777
Vwe wont
p4778
aVours wont
p4779
atp4780
a(I2
(lp4781
Vwe weigh
p4782
aVours weigh
p4783
atp4784
a(I2
(lp4785
Vwe wash
p4786
aVours wash
p4787
atp4788
a(I2
(lp4789
Vwe warn
p4790
aVours warn
p4791
atp4792
a(I2
(lp4793
Vwe wade
p4794
aVours wade
p4795
atp4796
a(I2
(lp4797
Vwe toss
p4798
aVours toss
p4799
atp4800
a(I2
(lp4801
Vwe swim
p4802
aVours swim
p4803
atp4804
a(I2
(lp4805
Vwe suspect
p4806
aVours suspect
p4807
atp4808
a(I2
(lp4809
Vwe survive
p4810
aVours survive
p4811
atp4812
a(I2
(lp4813
Vwe suppose
p4814
aVours suppose
p4815
atp4816
a(I2
(lp4817
Vwe support
p4818
aVours support
p4819
atp4820
a(I2
(lp4821
Vwe succeed
p4822
aVours succeed
p4823
atp4824
a(I2
(lp4825
Vwe struggle
p4826
aVours struggle
p4827
atp4828
a(I2
(lp4829
Vwe strike
p4830
aVours strike
p4831
atp4832
a(I2
(lp4833
Vwe state
p4834
aVours state
p4835
atp4836
a(I2
(lp4837
Vwe spoil
p4838
aVours spoil
p4839
atp4840
a(I2
(lp4841
Vwe sort
p4842
aVours sort
p4843
atp4844
a(I2
(lp4845
Vwe slow
p4846
aVours slow
p4847
atp4848
a(I2
(lp4849
Vwe skip
p4850
aVours skip
p4851
atp4852
a(I2
(lp4853
Vwe shape
p4854
aVours shape
p4855
atp4856
a(I2
(lp4857
Vwe serve
p4858
aVours serve
p4859
atp4860
a(I2
(lp4861
Vwe separate
p4862
aVours separate
p4863
atp4864
a(I2
(lp4865
Vwe rub
p4866
aVours rub
p4867
atp4868
a(I2
(lp4869
Vwe rise
p4870
aVours rise
p4871
atp4872
a(I2
(lp4873
Vwe review
p4874
aVours review
p4875
atp4876
a(I2
(lp4877
Vwe restrict
p4878
aVours restrict
p4879
atp4880
a(I2
(lp4881
Vwe rest
p4882
aVours rest
p4883
atp4884
a(I2
(lp4885
Vwe report
p4886
aVours report
p4887
atp4888
a(I2
(lp4889
Vwe repeat
p4890
aVours repeat
p4891
atp4892
a(I2
(lp4893
Vwe remain
p4894
aVours remain
p4895
atp4896
a(I2
(lp4897
Vwe release
p4898
aVours release
p4899
atp4900
a(I2
(lp4901
Vwe relate
p4902
aVours relate
p4903
atp4904
a(I2
(lp4905
Vwe regret
p4906
aVours regret
p4907
atp4908
a(I2
(lp4909
Vwe reflect
p4910
aVours reflect
p4911
atp4912
a(I2
(lp4913
Vwe pursue
p4914
aVours pursue
p4915
atp4916
a(I2
(lp4917
Vwe pump
p4918
aVours pump
p4919
atp4920
a(I2
(lp4921
Vwe pull
p4922
aVours pull
p4923
atp4924
a(I2
(lp4925
Vwe protect
p4926
aVours protect
p4927
atp4928
a(I2
(lp4929
Vwe progress
p4930
aVours progress
p4931
atp4932
a(I2
(lp4933
Vwe print
p4934
aVours print
p4935
atp4936
a(I2
(lp4937
Vwe predict
p4938
aVours predict
p4939
atp4940
a(I2
(lp4941
Vwe praise
p4942
aVours praise
p4943
atp4944
a(I2
(lp4945
Vwe practice
p4946
aVours practice
p4947
atp4948
a(I2
(lp4949
Vwe pour
p4950
aVours pour
p4951
atp4952
a(I2
(lp4953
Vwe picture
p4954
aVours picture
p4955
atp4956
a(I2
(lp4957
Vwe persist
p4958
aVours persist
p4959
atp4960
a(I2
(lp4961
Vwe own
p4962
aVours own
p4963
atp4964
a(I2
(lp4965
Vwe object
p4966
aVours object
p4967
atp4968
a(I2
(lp4969
Vwe obey
p4970
aVours obey
p4971
atp4972
a(I2
(lp4973
Vwe mature
p4974
aVours mature
p4975
atp4976
a(I2
(lp4977
Vwe mark
p4978
aVours mark
p4979
atp4980
a(I2
(lp4981
Vwe maintain
p4982
aVours maintain
p4983
atp4984
a(I2
(lp4985
Vwe load
p4986
aVours load
p4987
atp4988
a(I2
(lp4989
Vwe lead
p4990
aVours lead
p4991
atp4992
a(I2
(lp4993
Vwe lack
p4994
aVours lack
p4995
atp4996
a(I2
(lp4997
Vwe jump
p4998
aVours jump
p4999
atp5000
a(I2
(lp5001
Vwe irrigate
p5002
aVours irrigate
p5003
atp5004
a(I2
(lp5005
Vwe invent
p5006
aVours invent
p5007
atp5008
a(I2
(lp5009
Vwe interact
p5010
aVours interact
p5011
atp5012
a(I2
(lp5013
Vwe inherit
p5014
aVours inherit
p5015
atp5016
a(I2
(lp5017
Vwe infer
p5018
aVours infer
p5019
atp5020
a(I2
(lp5021
Vwe improve
p5022
aVours improve
p5023
atp5024
a(I2
(lp5025
Vwe illustrate
p5026
aVours illustrate
p5027
atp5028
a(I2
(lp5029
Vwe ignore
p5030
aVours ignore
p5031
atp5032
a(I2
(lp5033
Vwe hurt
p5034
aVours hurt
p5035
atp5036
a(I2
(lp5037
Vwe honor
p5038
aVours honor
p5039
atp5040
a(I2
(lp5041
Vwe hire
p5042
aVours hire
p5043
atp5044
a(I2
(lp5045
Vwe heat
p5046
aVours heat
p5047
atp5048
a(I2
(lp5049
Vwe hate
p5050
aVours hate
p5051
atp5052
a(I2
(lp5053
Vwe harm
p5054
aVours harm
p5055
atp5056
a(I2
(lp5057
Vwe grind
p5058
aVours grind
p5059
atp5060
a(I2
(lp5061
Vwe goin
p5062
aVours goin
p5063
atp5064
a(I2
(lp5065
Vwe generalize
p5066
aVours generalize
p5067
atp5068
a(I2
(lp5069
Vwe gaze
p5070
aVours gaze
p5071
atp5072
a(I2
(lp5073
Vwe function
p5074
aVours function
p5075
atp5076
a(I2
(lp5077
Vwe express
p5078
aVours express
p5079
atp5080
a(I2
(lp5081
Vwe export
p5082
aVours export
p5083
atp5084
a(I2
(lp5085
Vwe expand
p5086
aVours expand
p5087
atp5088
a(I2
(lp5089
Vwe exclude
p5090
aVours exclude
p5091
atp5092
a(I2
(lp5093
Vwe evaluate
p5094
aVours evaluate
p5095
atp5096
a(I2
(lp5097
Vwe estimate
p5098
aVours estimate
p5099
atp5100
a(I2
(lp5101
Vwe esteem
p5102
aVours esteem
p5103
atp5104
a(I2
(lp5105
Vwe engage
p5106
aVours engage
p5107
atp5108
a(I2
(lp5109
Vwe employ
p5110
aVours employ
p5111
atp5112
a(I2
(lp5113
Vwe emphasize
p5114
aVours emphasize
p5115
atp5116
a(I2
(lp5117
Vwe dump
p5118
aVours dump
p5119
atp5120
a(I2
(lp5121
Vwe drill
p5122
aVours drill
p5123
atp5124
a(I2
(lp5125
Vwe dream
p5126
aVours dream
p5127
atp5128
a(I2
(lp5129
Vwe doubt
p5130
aVours doubt
p5131
atp5132
a(I2
(lp5133
Vwe discriminate
p5134
aVours discriminate
p5135
atp5136
a(I2
(lp5137
Vwe discharge
p5138
aVours discharge
p5139
atp5140
a(I2
(lp5141
Vwe detect
p5142
aVours detect
p5143
atp5144
a(I2
(lp5145
Vwe destroy
p5146
aVours destroy
p5147
atp5148
a(I2
(lp5149
Vwe decorate
p5150
aVours decorate
p5151
atp5152
a(I2
(lp5153
Vwe cry
p5154
aVours cry
p5155
atp5156
a(I2
(lp5157
Vwe construct
p5158
aVours construct
p5159
atp5160
a(I2
(lp5161
Vwe chop
p5162
aVours chop
p5163
atp5164
a(I2
(lp5165
Vwe break
p5166
aVours break
p5167
atp5168
a(I2
(lp5169
Vwe blame
p5170
aVours blame
p5171
atp5172
a(I2
(lp5173
Vwe balance
p5174
aVours balance
p5175
atp5176
a(I2
(lp5177
Vwe assure
p5178
aVours assure
p5179
atp5180
a(I2
(lp5181
Vwe assign
p5182
aVours assign
p5183
atp5184
a(I2
(lp5185
Vwe arrange
p5186
aVours arrange
p5187
atp5188
a(I2
(lp5189
Vwe answer
p5190
aVours answer
p5191
atp5192
a(I2
(lp5193
Vwe analyze
p5194
aVours analyze
p5195
atp5196
a(I2
(lp5197
Vwe admit
p5198
aVours admit
p5199
atp5200
a(I2
(lp5201
Vwe achieve
p5202
aVours achieve
p5203
atp5204
a(I2
(lp5205
Vwe accomplish
p5206
aVours accomplish
p5207
atp5208
a(I2
(lp5209
Vus stretch
p5210
aVour stretch
p5211
atp5212
a(I2
(lp5213
Vus speak
p5214
aVour speak
p5215
atp5216
a(I2
(lp5217
Vus pay
p5218
aVour pay
p5219
atp5220
a(I2
(lp5221
Vus face
p5222
aVour face
p5223
atp5224
a(I2
(lp5225
Vus change
p5226
aVour change
p5227
atp5228
a(I2
(lp5229
Vthey wont
p5230
aVtheir wont
p5231
atp5232
a(I2
(lp5233
Vthey welcome
p5234
aVtheir welcome
p5235
atp5236
a(I2
(lp5237
Vthey wave
p5238
aVtheir wave
p5239
atp5240
a(I2
(lp5241
Vthey undergo
p5242
aVtheir undergo
p5243
atp5244
a(I2
(lp5245
Vthey trace
p5246
aVtheir trace
p5247
atp5248
a(I2
(lp5249
Vthey thank
p5250
aVtheir thank
p5251
atp5252
a(I2
(lp5253
Vthey synthesize
p5254
aVtheir synthesize
p5255
atp5256
a(I2
(lp5257
Vthey suspect
p5258
aVtheir suspect
p5259
atp5260
a(I2
(lp5261
Vthey suck
p5262
aVtheir suck
p5263
atp5264
a(I2
(lp5265
Vthey stir
p5266
aVtheir stir
p5267
atp5268
a(I2
(lp5269
Vthey stem
p5270
aVtheir stem
p5271
atp5272
a(I2
(lp5273
Vthey steal
p5274
aVtheir steal
p5275
atp5276
a(I2
(lp5277
Vthey starve
p5278
aVtheir starve
p5279
atp5280
a(I2
(lp5281
Vthey sprout
p5282
aVtheir sprout
p5283
atp5284
a(I2
(lp5285
Vthey soak
p5286
aVtheir soak
p5287
atp5288
a(I2
(lp5289
Vthey slide
p5290
aVtheir slide
p5291
atp5292
a(I2
(lp5293
Vthey skip
p5294
aVtheir skip
p5295
atp5296
a(I2
(lp5297
Vthey skim
p5298
aVtheir skim
p5299
atp5300
a(I2
(lp5301
Vthey skate
p5302
aVtheir skate
p5303
atp5304
a(I2
(lp5305
Vthey shout
p5306
aVtheir shout
p5307
atp5308
a(I2
(lp5309
Vthey shift
p5310
aVtheir shift
p5311
atp5312
a(I2
(lp5313
Vthey sew
p5314
aVtheir sew
p5315
atp5316
a(I2
(lp5317
Vthey scream
p5318
aVtheir scream
p5319
atp5320
a(I2
(lp5321
Vthey scratch
p5322
aVtheir scratch
p5323
atp5324
a(I2
(lp5325
Vthey score
p5326
aVtheir score
p5327
atp5328
a(I2
(lp5329
Vthey scan
p5330
aVtheir scan
p5331
atp5332
a(I2
(lp5333
Vthey satisfy
p5334
aVtheir satisfy
p5335
atp5336
a(I2
(lp5337
Vthey roll
p5338
aVtheir roll
p5339
atp5340
a(I2
(lp5341
Vthey ring
p5342
aVtheir ring
p5343
atp5344
a(I2
(lp5345
Vthey reveal
p5346
aVtheir reveal
p5347
atp5348
a(I2
(lp5349
Vthey repair
p5350
aVtheir repair
p5351
atp5352
a(I2
(lp5353
Vthey register
p5354
aVtheir register
p5355
atp5356
a(I2
(lp5357
Vthey regard
p5358
aVtheir regard
p5359
atp5360
a(I2
(lp5361
Vthey recover
p5362
aVtheir recover
p5363
atp5364
a(I2
(lp5365
Vthey radiate
p5366
aVtheir radiate
p5367
atp5368
a(I2
(lp5369
Vthey pursue
p5370
aVtheir pursue
p5371
atp5372
a(I2
(lp5373
Vthey pump
p5374
aVtheir pump
p5375
atp5376
a(I2
(lp5377
Vthey propose
p5378
aVtheir propose
p5379
atp5380
a(I2
(lp5381
Vthey promote
p5382
aVtheir promote
p5383
atp5384
a(I2
(lp5385
Vthey predict
p5386
aVtheir predict
p5387
atp5388
a(I2
(lp5389
Vthey precipitate
p5390
aVtheir precipitate
p5391
atp5392
a(I2
(lp5393
Vthey plunge
p5394
aVtheir plunge
p5395
atp5396
a(I2
(lp5397
Vthey plow
p5398
aVtheir plow
p5399
atp5400
a(I2
(lp5401
Vthey persist
p5402
aVtheir persist
p5403
atp5404
a(I2
(lp5405
Vthey peck
p5406
aVtheir peck
p5407
atp5408
a(I2
(lp5409
Vthey overlook
p5410
aVtheir overlook
p5411
atp5412
a(I2
(lp5413
Vthey nominate
p5414
aVtheir nominate
p5415
atp5416
a(I2
(lp5417
Vthey nigh
p5418
aVtheir nigh
p5419
atp5420
a(I2
(lp5421
Vthey needn
p5422
aVtheir needn
p5423
atp5424
a(I2
(lp5425
Vthey miss
p5426
aVtheir miss
p5427
atp5428
a(I2
(lp5429
Vthey mention
p5430
aVtheir mention
p5431
atp5432
a(I2
(lp5433
Vthey lease
p5434
aVtheir lease
p5435
atp5436
a(I2
(lp5437
Vthey judge
p5438
aVtheir judge
p5439
atp5440
a(I2
(lp5441
Vthey invite
p5442
aVtheir invite
p5443
atp5444
a(I2
(lp5445
Vthey interpret
p5446
aVtheir interpret
p5447
atp5448
a(I2
(lp5449
Vthey insist
p5450
aVtheir insist
p5451
atp5452
a(I2
(lp5453
Vthey inhale
p5454
aVtheir inhale
p5455
atp5456
a(I2
(lp5457
Vthey inform
p5458
aVtheir inform
p5459
atp5460
a(I2
(lp5461
Vthey imitate
p5462
aVtheir imitate
p5463
atp5464
a(I2
(lp5465
Vthey hike
p5466
aVtheir hike
p5467
atp5468
a(I2
(lp5469
Vthey hide
p5470
aVtheir hide
p5471
atp5472
a(I2
(lp5473
Vthey hesitate
p5474
aVtheir hesitate
p5475
atp5476
a(I2
(lp5477
Vthey graze
p5478
aVtheir graze
p5479
atp5480
a(I2
(lp5481
Vthey glide
p5482
aVtheir glide
p5483
atp5484
a(I2
(lp5485
Vthey generate
p5486
aVtheir generate
p5487
atp5488
a(I2
(lp5489
Vthey fulfill
p5490
aVtheir fulfill
p5491
atp5492
a(I2
(lp5493
Vthey formulate
p5494
aVtheir formulate
p5495
atp5496
a(I2
(lp5497
Vthey flash
p5498
aVtheir flash
p5499
atp5500
a(I2
(lp5501
Vthey fasten
p5502
aVtheir fasten
p5503
atp5504
a(I2
(lp5505
Vthey fade
p5506
aVtheir fade
p5507
atp5508
a(I2
(lp5509
Vthey evaporate
p5510
aVtheir evaporate
p5511
atp5512
a(I2
(lp5513
Vthey evaluate
p5514
aVtheir evaluate
p5515
atp5516
a(I2
(lp5517
Vthey dump
p5518
aVtheir dump
p5519
atp5520
a(I2
(lp5521
Vthey drag
p5522
aVtheir drag
p5523
atp5524
a(I2
(lp5525
Vthey dont
p5526
aVtheir dont
p5527
atp5528
a(I2
(lp5529
Vthey display
p5530
aVtheir display
p5531
atp5532
a(I2
(lp5533
Vthey diminish
p5534
aVtheir diminish
p5535
atp5536
a(I2
(lp5537
Vthey derive
p5538
aVtheir derive
p5539
atp5540
a(I2
(lp5541
Vthey decompose
p5542
aVtheir decompose
p5543
atp5544
a(I2
(lp5545
Vthey cultivate
p5546
aVtheir cultivate
p5547
atp5548
a(I2
(lp5549
Vthey crash
p5550
aVtheir crash
p5551
atp5552
a(I2
(lp5553
Vthey conform
p5554
aVtheir conform
p5555
atp5556
a(I2
(lp5557
Vthey comprise
p5558
aVtheir comprise
p5559
atp5560
a(I2
(lp5561
Vthey comprehend
p5562
aVtheir comprehend
p5563
atp5564
a(I2
(lp5565
Vthey compose
p5566
aVtheir compose
p5567
atp5568
a(I2
(lp5569
Vthey chat
p5570
aVtheir chat
p5571
atp5572
a(I2
(lp5573
Vthey celebrate
p5574
aVtheir celebrate
p5575
atp5576
a(I2
(lp5577
Vthey breed
p5578
aVtheir breed
p5579
atp5580
a(I2
(lp5581
Vthey boil
p5582
aVtheir boil
p5583
atp5584
a(I2
(lp5585
Vthey boast
p5586
aVtheir boast
p5587
atp5588
a(I2
(lp5589
Vthey blend
p5590
aVtheir blend
p5591
atp5592
a(I2
(lp5593
Vthey blame
p5594
aVtheir blame
p5595
atp5596
a(I2
(lp5597
Vthey bend
p5598
aVtheir bend
p5599
atp5600
a(I2
(lp5601
Vthey associate
p5602
aVtheir associate
p5603
atp5604
a(I2
(lp5605
Vthey assert
p5606
aVtheir assert
p5607
atp5608
a(I2
(lp5609
Vthey assemble
p5610
aVtheir assemble
p5611
atp5612
a(I2
(lp5613
Vthey arch
p5614
aVtheir arch
p5615
atp5616
a(I2
(lp5617
Vthey appoint
p5618
aVtheir appoint
p5619
atp5620
a(I2
(lp5621
Vthey anticipate
p5622
aVtheir anticipate
p5623
atp5624
a(I2
(lp5625
Vthey afford
p5626
aVtheir afford
p5627
atp5628
a(I2
(lp5629
Vthey advertise
p5630
aVtheir advertise
p5631
atp5632
a(I2
(lp5633
Vthey admire
p5634
aVtheir admire
p5635
atp5636
a(I2
(lp5637
Vthey administer
p5638
aVtheir administer
p5639
atp5640
a(I2
(lp5641
Vthey accumulate
p5642
aVtheir accumulate
p5643
atp5644
a(I2
(lp5645
Vthey accomplish
p5646
aVtheir accomplish
p5647
atp5648
a(I2
(lp5649
Vthey accompany
p5650
aVtheir accompany
p5651
atp5652
a(I2
(lp5653
Vthey abandon
p5654
aVtheir abandon
p5655
atp5656
a(I2
(lp5657
Vthemselves seem
p5658
aVtheir seem
p5659
atp5660
a(I2
(lp5661
Vthemselves require
p5662
aVtheir require
p5663
atp5664
a(I2
(lp5665
Vthemselves appear
p5666
aVtheir appear
p5667
atp5668
a(I2
(lp5669
Vthem william
p5670
aVtheir william
p5671
atp5672
a(I2
(lp5673
Vthem wander
p5674
aVtheir wander
p5675
atp5676
a(I2
(lp5677
Vthem steal
p5678
aVtheir steal
p5679
atp5680
a(I2
(lp5681
Vthem spend
p5682
aVtheir spend
p5683
atp5684
a(I2
(lp5685
Vthem sit
p5686
aVtheir sit
p5687
atp5688
a(I2
(lp5689
Vthem sell
p5690
aVtheir sell
p5691
atp5692
a(I2
(lp5693
Vthem predict
p5694
aVtheir predict
p5695
atp5696
a(I2
(lp5697
Vthem perform
p5698
aVtheir perform
p5699
atp5700
a(I2
(lp5701
Vthem pack
p5702
aVtheir pack
p5703
atp5704
a(I2
(lp5705
Vthem operate
p5706
aVtheir operate
p5707
atp5708
a(I2
(lp5709
Vthem maintain
p5710
aVtheir maintain
p5711
atp5712
a(I2
(lp5713
Vthem enjoy
p5714
aVtheir enjoy
p5715
atp5716
a(I2
(lp5717
Vthem eat
p5718
aVtheir eat
p5719
atp5720
a(I2
(lp5721
Vthem don
p5722
aVtheir don
p5723
atp5724
a(I2
(lp5725
Vthem breathe
p5726
aVtheir breathe
p5727
atp5728
a(I2
(lp5729
Vshe tuck
p5730
aVher tuck
p5731
atp5732
a(I2
(lp5733
Vme am
p5734
aVmy am
p5735
atp5736
a(I2
(lp5737
Vit spit
p5738
aVits spit
p5739
atp5740
a(I2
(lp5741
Vit slip
p5742
aVits slip
p5743
atp5744
a(I2
(lp5745
Vit remember
p5746
aVits remember
p5747
atp5748
a(I2
(lp5749
Vit imply
p5750
aVits imply
p5751
atp5752
a(I2
(lp5753
Vit fail
p5754
aVits fail
p5755
atp5756
a(I2
(lp5757
Vhe spend
p5758
aVhis spend
p5759
atp5760
a(I2
(lp5761
Vhe behave
p5762
aVhis behave
p5763
atp5764
a(I1
(lp5765
Vyou zip
p5766
aVyour zip
p5767
atp5768
a(I1
(lp5769
Vyou wipe
p5770
aVyour wipe
p5771
atp5772
a(I1
(lp5773
Vyou wiggle
p5774
aVyour wiggle
p5775
atp5776
a(I1
(lp5777
Vyou violate
p5778
aVyour violate
p5779
atp5780
a(I1
(lp5781
Vyou venture
p5782
aVyour venture
p5783
atp5784
a(I1
(lp5785
Vyou uncover
p5786
aVyour uncover
p5787
atp5788
a(I1
(lp5789
Vyou twist
p5790
aVyour twist
p5791
atp5792
a(I1
(lp5793
Vyou tuck
p5794
aVyour tuck
p5795
atp5796
a(I1
(lp5797
Vyou trot
p5798
aVyour trot
p5799
atp5800
a(I1
(lp5801
Vyou transform
p5802
aVyour transform
p5803
atp5804
a(I1
(lp5805
Vyou toil
p5806
aVyour toil
p5807
atp5808
a(I1
(lp5809
Vyou surrender
p5810
aVyour surrender
p5811
atp5812
a(I1
(lp5813
Vyou strung
p5814
aVyour strung
p5815
atp5816
a(I1
(lp5817
Vyou struggle
p5818
aVyour struggle
p5819
atp5820
a(I1
(lp5821
Vyou strain
p5822
aVyour strain
p5823
atp5824
a(I1
(lp5825
Vyou stimulate
p5826
aVyour stimulate
p5827
atp5828
a(I1
(lp5829
Vyou stain
p5830
aVyour stain
p5831
atp5832
a(I1
(lp5833
Vyou square
p5834
aVyour square
p5835
atp5836
a(I1
(lp5837
Vyou spy
p5838
aVyour spy
p5839
atp5840
a(I1
(lp5841
Vyou sow
p5842
aVyour sow
p5843
atp5844
a(I1
(lp5845
Vyou snatch
p5846
aVyour snatch
p5847
atp5848
a(I1
(lp5849
Vyou slice
p5850
aVyour slice
p5851
atp5852
a(I1
(lp5853
Vyou slam
p5854
aVyour slam
p5855
atp5856
a(I1
(lp5857
Vyou skinny
p5858
aVyour skinny
p5859
atp5860
a(I1
(lp5861
Vyou shrimp
p5862
aVyour shrimp
p5863
atp5864
a(I1
(lp5865
Vyou shiver
p5866
aVyour shiver
p5867
atp5868
a(I1
(lp5869
Vyou shan
p5870
aVyour shan
p5871
atp5872
a(I1
(lp5873
Vyou scum
p5874
aVyour scum
p5875
atp5876
a(I1
(lp5877
Vyou screech
p5878
aVyour screech
p5879
atp5880
a(I1
(lp5881
Vyou rule
p5882
aVyour rule
p5883
atp5884
a(I1
(lp5885
Vyou roam
p5886
aVyour roam
p5887
atp5888
a(I1
(lp5889
Vyou rewrite
p5890
aVyour rewrite
p5891
atp5892
a(I1
(lp5893
Vyou retire
p5894
aVyour retire
p5895
atp5896
a(I1
(lp5897
Vyou reside
p5898
aVyour reside
p5899
atp5900
a(I1
(lp5901
Vyou refrain
p5902
aVyour refrain
p5903
atp5904
a(I1
(lp5905
Vyou reflect
p5906
aVyour reflect
p5907
atp5908
a(I1
(lp5909
Vyou reap
p5910
aVyour reap
p5911
atp5912
a(I1
(lp5913
Vyou rattle
p5914
aVyour rattle
p5915
atp5916
a(I1
(lp5917
Vyou ram
p5918
aVyour ram
p5919
atp5920
a(I1
(lp5921
Vyou rake
p5922
aVyour rake
p5923
atp5924
a(I1
(lp5925
Vyou pursue
p5926
aVyour pursue
p5927
atp5928
a(I1
(lp5929
Vyou print
p5930
aVyour print
p5931
atp5932
a(I1
(lp5933
Vyou preach
p5934
aVyour preach
p5935
atp5936
a(I1
(lp5937
Vyou pray
p5938
aVyour pray
p5939
atp5940
a(I1
(lp5941
Vyou pitch
p5942
aVyour pitch
p5943
atp5944
a(I1
(lp5945
Vyou pit
p5946
aVyour pit
p5947
atp5948
a(I1
(lp5949
Vyou pinch
p5950
aVyour pinch
p5951
atp5952
a(I1
(lp5953
Vyou persuade
p5954
aVyour persuade
p5955
atp5956
a(I1
(lp5957
Vyou paul
p5958
aVyour paul
p5959
atp5960
a(I1
(lp5961
Vyou panic
p5962
aVyour panic
p5963
atp5964
a(I1
(lp5965
Vyou occupy
p5966
aVyour occupy
p5967
atp5968
a(I1
(lp5969
Vyou notify
p5970
aVyour notify
p5971
atp5972
a(I1
(lp5973
Vyou narrow
p5974
aVyour narrow
p5975
atp5976
a(I1
(lp5977
Vyou monitor
p5978
aVyour monitor
p5979
atp5980
a(I1
(lp5981
Vyou mature
p5982
aVyour mature
p5983
atp5984
a(I1
(lp5985
Vyou matter
p5986
aVyour matter
p5987
atp5988
a(I1
(lp5989
Vyou lock
p5990
aVyour lock
p5991
atp5992
a(I1
(lp5993
Vyou load
p5994
aVyour load
p5995
atp5996
a(I1
(lp5997
Vyou lick
p5998
aVyour lick
p5999
atp6000
a(I1
(lp6001
Vyou jim
p6002
aVyour jim
p6003
atp6004
a(I1
(lp6005
Vyou jerk
p6006
aVyour jerk
p6007
atp6008
a(I1
(lp6009
Vyou involve
p6010
aVyour involve
p6011
atp6012
a(I1
(lp6013
Vyou invest
p6014
aVyour invest
p6015
atp6016
a(I1
(lp6017
Vyou introduce
p6018
aVyour introduce
p6019
atp6020
a(I1
(lp6021
Vyou interrupt
p6022
aVyour interrupt
p6023
atp6024
a(I1
(lp6025
Vyou instruct
p6026
aVyour instruct
p6027
atp6028
a(I1
(lp6029
Vyou install
p6030
aVyour install
p6031
atp6032
a(I1
(lp6033
Vyou inspect
p6034
aVyour inspect
p6035
atp6036
a(I1
(lp6037
Vyou insert
p6038
aVyour insert
p6039
atp6040
a(I1
(lp6041
Vyou injure
p6042
aVyour injure
p6043
atp6044
a(I1
(lp6045
Vyou imply
p6046
aVyour imply
p6047
atp6048
a(I1
(lp6049
Vyou implement
p6050
aVyour implement
p6051
atp6052
a(I1
(lp6053
Vyou imitate
p6054
aVyour imitate
p6055
atp6056
a(I1
(lp6057
Vyou illustrate
p6058
aVyour illustrate
p6059
atp6060
a(I1
(lp6061
Vyou hasn
p6062
aVyour hasn
p6063
atp6064
a(I1
(lp6065
Vyou harry
p6066
aVyour harry
p6067
atp6068
a(I1
(lp6069
Vyou hail
p6070
aVyour hail
p6071
atp6072
a(I1
(lp6073
Vyou gulp
p6074
aVyour gulp
p6075
atp6076
a(I1
(lp6077
Vyou grasp
p6078
aVyour grasp
p6079
atp6080
a(I1
(lp6081
Vyou grab
p6082
aVyour grab
p6083
atp6084
a(I1
(lp6085
Vyou fuss
p6086
aVyour fuss
p6087
atp6088
a(I1
(lp6089
Vyou frown
p6090
aVyour frown
p6091
atp6092
a(I1
(lp6093
Vyou forecast
p6094
aVyour forecast
p6095
atp6096
a(I1
(lp6097
Vyou flourish
p6098
aVyour flourish
p6099
atp6100
a(I1
(lp6101
Vyou flatter
p6102
aVyour flatter
p6103
atp6104
a(I1
(lp6105
Vyou fetch
p6106
aVyour fetch
p6107
atp6108
a(I1
(lp6109
Vyou fare
p6110
aVyour fare
p6111
atp6112
a(I1
(lp6113
Vyou exert
p6114
aVyour exert
p6115
atp6116
a(I1
(lp6117
Vyou evaporate
p6118
aVyour evaporate
p6119
atp6120
a(I1
(lp6121
Vyou envy
p6122
aVyour envy
p6123
atp6124
a(I1
(lp6125
Vyou entertain
p6126
aVyour entertain
p6127
atp6128
a(I1
(lp6129
Vyou endeavor
p6130
aVyour endeavor
p6131
atp6132
a(I1
(lp6133
Vyou encourage
p6134
aVyour encourage
p6135
atp6136
a(I1
(lp6137
Vyou elect
p6138
aVyour elect
p6139
atp6140
a(I1
(lp6141
Vyou dump
p6142
aVyour dump
p6143
atp6144
a(I1
(lp6145
Vyou drift
p6146
aVyour drift
p6147
atp6148
a(I1
(lp6149
Vyou doubtless
p6150
aVyour doubtless
p6151
atp6152
a(I1
(lp6153
Vyou dot
p6154
aVyour dot
p6155
atp6156
a(I1
(lp6157
Vyou distinguish
p6158
aVyour distinguish
p6159
atp6160
a(I1
(lp6161
Vyou display
p6162
aVyour display
p6163
atp6164
a(I1
(lp6165
Vyou disappear
p6166
aVyour disappear
p6167
atp6168
a(I1
(lp6169
Vyou differ
p6170
aVyour differ
p6171
atp6172
a(I1
(lp6173
Vyou descend
p6174
aVyour descend
p6175
atp6176
a(I1
(lp6177
Vyou derive
p6178
aVyour derive
p6179
atp6180
a(I1
(lp6181
Vyou depart
p6182
aVyour depart
p6183
atp6184
a(I1
(lp6185
Vyou deliver
p6186
aVyour deliver
p6187
atp6188
a(I1
(lp6189
Vyou declare
p6190
aVyour declare
p6191
atp6192
a(I1
(lp6193
Vyou crush
p6194
aVyour crush
p6195
atp6196
a(I1
(lp6197
Vyou crank
p6198
aVyour crank
p6199
atp6200
a(I1
(lp6201
Vyou correspond
p6202
aVyour correspond
p6203
atp6204
a(I1
(lp6205
Vyou correct
p6206
aVyour correct
p6207
atp6208
a(I1
(lp6209
Vyou cops
p6210
aVyour cops
p6211
atp6212
a(I1
(lp6213
Vyou consume
p6214
aVyour consume
p6215
atp6216
a(I1
(lp6217
Vyou conquer
p6218
aVyour conquer
p6219
atp6220
a(I1
(lp6221
Vyou confirm
p6222
aVyour confirm
p6223
atp6224
a(I1
(lp6225
Vyou confess
p6226
aVyour confess
p6227
atp6228
a(I1
(lp6229
Vyou compete
p6230
aVyour compete
p6231
atp6232
a(I1
(lp6233
Vyou compensate
p6234
aVyour compensate
p6235
atp6236
a(I1
(lp6237
Vyou clown
p6238
aVyour clown
p6239
atp6240
a(I1
(lp6241
Vyou clarify
p6242
aVyour clarify
p6243
atp6244
a(I1
(lp6245
Vyou clap
p6246
aVyour clap
p6247
atp6248
a(I1
(lp6249
Vyou chase
p6250
aVyour chase
p6251
atp6252
a(I1
(lp6253
Vyou brief
p6254
aVyour brief
p6255
atp6256
a(I1
(lp6257
Vyou bounce
p6258
aVyour bounce
p6259
atp6260
a(I1
(lp6261
Vyou bind
p6262
aVyour bind
p6263
atp6264
a(I1
(lp6265
Vyou benefit
p6266
aVyour benefit
p6267
atp6268
a(I1
(lp6269
Vyou assist
p6270
aVyour assist
p6271
atp6272
a(I1
(lp6273
Vyou assert
p6274
aVyour assert
p6275
atp6276
a(I1
(lp6277
Vyou articulate
p6278
aVyour articulate
p6279
atp6280
a(I1
(lp6281
Vyou arouse
p6282
aVyour arouse
p6283
atp6284
a(I1
(lp6285
Vyou am
p6286
aVyour am
p6287
atp6288
a(I1
(lp6289
Vyou ah
p6290
aVyour ah
p6291
atp6292
a(I1
(lp6293
Vyou advocate
p6294
aVyour advocate
p6295
atp6296
a(I1
(lp6297
Vyou accumulate
p6298
aVyour accumulate
p6299
atp6300
a(I1
(lp6301
Vyou abuse
p6302
aVyour abuse
p6303
atp6304
a(I1
(lp6305
Vyou absorb
p6306
aVyour absorb
p6307
atp6308
a(I1
(lp6309
Vwe yield
p6310
aVours yield
p6311
atp6312
a(I1
(lp6313
Vwe wind
p6314
aVours wind
p6315
atp6316
a(I1
(lp6317
Vwe welcome
p6318
aVours welcome
p6319
atp6320
a(I1
(lp6321
Vwe weave
p6322
aVours weave
p6323
atp6324
a(I1
(lp6325
Vwe water
p6326
aVours water
p6327
atp6328
a(I1
(lp6329
Vwe voice
p6330
aVours voice
p6331
atp6332
a(I1
(lp6333
Vwe visualize
p6334
aVours visualize
p6335
atp6336
a(I1
(lp6337
Vwe venture
p6338
aVours venture
p6339
atp6340
a(I1
(lp6341
Vwe urge
p6342
aVours urge
p6343
atp6344
a(I1
(lp6345
Vwe uphold
p6346
aVours uphold
p6347
atp6348
a(I1
(lp6349
Vwe unite
p6350
aVours unite
p6351
atp6352
a(I1
(lp6353
Vwe undertake
p6354
aVours undertake
p6355
atp6356
a(I1
(lp6357
Vwe undergo
p6358
aVours undergo
p6359
atp6360
a(I1
(lp6361
Vwe uncover
p6362
aVours uncover
p6363
atp6364
a(I1
(lp6365
Vwe tumble
p6366
aVours tumble
p6367
atp6368
a(I1
(lp6369
Vwe tread
p6370
aVours tread
p6371
atp6372
a(I1
(lp6373
Vwe trace
p6374
aVours trace
p6375
atp6376
a(I1
(lp6377
Vwe touch
p6378
aVours touch
p6379
atp6380
a(I1
(lp6381
Vwe total
p6382
aVours total
p6383
atp6384
a(I1
(lp6385
Vwe test
p6386
aVours test
p6387
atp6388
a(I1
(lp6389
Vwe term
p6390
aVours term
p6391
atp6392
a(I1
(lp6393
Vwe tear
p6394
aVours tear
p6395
atp6396
a(I1
(lp6397
Vwe taste
p6398
aVours taste
p6399
atp6400
a(I1
(lp6401
Vwe tackle
p6402
aVours tackle
p6403
atp6404
a(I1
(lp6405
Vwe sweat
p6406
aVours sweat
p6407
atp6408
a(I1
(lp6409
Vwe surrender
p6410
aVours surrender
p6411
atp6412
a(I1
(lp6413
Vwe summarize
p6414
aVours summarize
p6415
atp6416
a(I1
(lp6417
Vwe substitute
p6418
aVours substitute
p6419
atp6420
a(I1
(lp6421
Vwe stumble
p6422
aVours stumble
p6423
atp6424
a(I1
(lp6425
Vwe stuff
p6426
aVours stuff
p6427
atp6428
a(I1
(lp6429
Vwe stroll
p6430
aVours stroll
p6431
atp6432
a(I1
(lp6433
Vwe stretch
p6434
aVours stretch
p6435
atp6436
a(I1
(lp6437
Vwe stick
p6438
aVours stick
p6439
atp6440
a(I1
(lp6441
Vwe steal
p6442
aVours steal
p6443
atp6444
a(I1
(lp6445
Vwe stamp
p6446
aVours stamp
p6447
atp6448
a(I1
(lp6449
Vwe spill
p6450
aVours spill
p6451
atp6452
a(I1
(lp6453
Vwe spell
p6454
aVours spell
p6455
atp6456
a(I1
(lp6457
Vwe sound
p6458
aVours sound
p6459
atp6460
a(I1
(lp6461
Vwe smell
p6462
aVours smell
p6463
atp6464
a(I1
(lp6465
Vwe skim
p6466
aVours skim
p6467
atp6468
a(I1
(lp6469
Vwe sink
p6470
aVours sink
p6471
atp6472
a(I1
(lp6473
Vwe sing
p6474
aVours sing
p6475
atp6476
a(I1
(lp6477
Vwe signal
p6478
aVours signal
p6479
atp6480
a(I1
(lp6481
Vwe sign
p6482
aVours sign
p6483
atp6484
a(I1
(lp6485
Vwe shore
p6486
aVours shore
p6487
atp6488
a(I1
(lp6489
Vwe shoot
p6490
aVours shoot
p6491
atp6492
a(I1
(lp6493
Vwe shiver
p6494
aVours shiver
p6495
atp6496
a(I1
(lp6497
Vwe ship
p6498
aVours ship
p6499
atp6500
a(I1
(lp6501
Vwe shine
p6502
aVours shine
p6503
atp6504
a(I1
(lp6505
Vwe shift
p6506
aVours shift
p6507
atp6508
a(I1
(lp6509
Vwe shake
p6510
aVours shake
p6511
atp6512
a(I1
(lp6513
Vwe seal
p6514
aVours seal
p6515
atp6516
a(I1
(lp6517
Vwe scent
p6518
aVours scent
p6519
atp6520
a(I1
(lp6521
Vwe satisfy
p6522
aVours satisfy
p6523
atp6524
a(I1
(lp6525
Vwe salute
p6526
aVours salute
p6527
atp6528
a(I1
(lp6529
Vwe round
p6530
aVours round
p6531
atp6532
a(I1
(lp6533
Vwe roam
p6534
aVours roam
p6535
atp6536
a(I1
(lp6537
Vwe ring
p6538
aVours ring
p6539
atp6540
a(I1
(lp6541
Vwe reward
p6542
aVours reward
p6543
atp6544
a(I1
(lp6545
Vwe reverse
p6546
aVours reverse
p6547
atp6548
a(I1
(lp6549
Vwe reveal
p6550
aVours reveal
p6551
atp6552
a(I1
(lp6553
Vwe retrieve
p6554
aVours retrieve
p6555
atp6556
a(I1
(lp6557
Vwe reread
p6558
aVours reread
p6559
atp6560
a(I1
(lp6561
Vwe remind
p6562
aVours remind
p6563
atp6564
a(I1
(lp6565
Vwe reject
p6566
aVours reject
p6567
atp6568
a(I1
(lp6569
Vwe reduce
p6570
aVours reduce
p6571
atp6572
a(I1
(lp6573
Vwe recruit
p6574
aVours recruit
p6575
atp6576
a(I1
(lp6577
Vwe reckon
p6578
aVours reckon
p6579
atp6580
a(I1
(lp6581
Vwe re
p6582
aVours re
p6583
atp6584
a(I1
(lp6585
Vwe rank
p6586
aVours rank
p6587
atp6588
a(I1
(lp6589
Vwe question
p6590
aVours question
p6591
atp6592
a(I1
(lp6593
Vwe promise
p6594
aVours promise
p6595
atp6596
a(I1
(lp6597
Vwe project
p6598
aVours project
p6599
atp6600
a(I1
(lp6601
Vwe prohibit
p6602
aVours prohibit
p6603
atp6604
a(I1
(lp6605
Vwe probe
p6606
aVours probe
p6607
atp6608
a(I1
(lp6609
Vwe pretend
p6610
aVours pretend
p6611
atp6612
a(I1
(lp6613
Vwe press
p6614
aVours press
p6615
atp6616
a(I1
(lp6617
Vwe present
p6618
aVours present
p6619
atp6620
a(I1
(lp6621
Vwe post
p6622
aVours post
p6623
atp6624
a(I1
(lp6625
Vwe pollute
p6626
aVours pollute
p6627
atp6628
a(I1
(lp6629
Vwe poke
p6630
aVours poke
p6631
atp6632
a(I1
(lp6633
Vwe plug
p6634
aVours plug
p6635
atp6636
a(I1
(lp6637
Vwe petition
p6638
aVours petition
p6639
atp6640
a(I1
(lp6641
Vwe peer
p6642
aVours peer
p6643
atp6644
a(I1
(lp6645
Vwe pause
p6646
aVours pause
p6647
atp6648
a(I1
(lp6649
Vwe pat
p6650
aVours pat
p6651
atp6652
a(I1
(lp6653
Vwe pack
p6654
aVours pack
p6655
atp6656
a(I1
(lp6657
Vwe overlook
p6658
aVours overlook
p6659
atp6660
a(I1
(lp6661
Vwe overcome
p6662
aVours overcome
p6663
atp6664
a(I1
(lp6665
Vwe order
p6666
aVours order
p6667
atp6668
a(I1
(lp6669
Vwe operate
p6670
aVours operate
p6671
atp6672
a(I1
(lp6673
Vwe offer
p6674
aVours offer
p6675
atp6676
a(I1
(lp6677
Vwe negotiate
p6678
aVours negotiate
p6679
atp6680
a(I1
(lp6681
Vwe nail
p6682
aVours nail
p6683
atp6684
a(I1
(lp6685
Vwe multiply
p6686
aVours multiply
p6687
atp6688
a(I1
(lp6689
Vwe missouri
p6690
aVours missouri
p6691
atp6692
a(I1
(lp6693
Vwe melt
p6694
aVours melt
p6695
atp6696
a(I1
(lp6697
Vwe marvel
p6698
aVours marvel
p6699
atp6700
a(I1
(lp6701
Vwe market
p6702
aVours market
p6703
atp6704
a(I1
(lp6705
Vwe march
p6706
aVours march
p6707
atp6708
a(I1
(lp6709
Vwe manufacture
p6710
aVours manufacture
p6711
atp6712
a(I1
(lp6713
Vwe manipulate
p6714
aVours manipulate
p6715
atp6716
a(I1
(lp6717
Vwe loan
p6718
aVours loan
p6719
atp6720
a(I1
(lp6721
Vwe list
p6722
aVours list
p6723
atp6724
a(I1
(lp6725
Vwe lie
p6726
aVours lie
p6727
atp6728
a(I1
(lp6729
Vwe lean
p6730
aVours lean
p6731
atp6732
a(I1
(lp6733
Vwe launch
p6734
aVours launch
p6735
atp6736
a(I1
(lp6737
Vwe issue
p6738
aVours issue
p6739
atp6740
a(I1
(lp6741
Vwe isolate
p6742
aVours isolate
p6743
atp6744
a(I1
(lp6745
Vwe investigate
p6746
aVours investigate
p6747
atp6748
a(I1
(lp6749
Vwe introduce
p6750
aVours introduce
p6751
atp6752
a(I1
(lp6753
Vwe inspect
p6754
aVours inspect
p6755
atp6756
a(I1
(lp6757
Vwe insist
p6758
aVours insist
p6759
atp6760
a(I1
(lp6761
Vwe initiate
p6762
aVours initiate
p6763
atp6764
a(I1
(lp6765
Vwe indicate
p6766
aVours indicate
p6767
atp6768
a(I1
(lp6769
Vwe imitate
p6770
aVours imitate
p6771
atp6772
a(I1
(lp6773
Vwe hop
p6774
aVours hop
p6775
atp6776
a(I1
(lp6777
Vwe hike
p6778
aVours hike
p6779
atp6780
a(I1
(lp6781
Vwe hesitate
p6782
aVours hesitate
p6783
atp6784
a(I1
(lp6785
Vwe head
p6786
aVours head
p6787
atp6788
a(I1
(lp6789
Vwe haul
p6790
aVours haul
p6791
atp6792
a(I1
(lp6793
Vwe hang
p6794
aVours hang
p6795
atp6796
a(I1
(lp6797
Vwe hand
p6798
aVours hand
p6799
atp6800
a(I1
(lp6801
Vwe guess
p6802
aVours guess
p6803
atp6804
a(I1
(lp6805
Vwe grin
p6806
aVours grin
p6807
atp6808
a(I1
(lp6809
Vwe greet
p6810
aVours greet
p6811
atp6812
a(I1
(lp6813
Vwe glide
p6814
aVours glide
p6815
atp6816
a(I1
(lp6817
Vwe git
p6818
aVours git
p6819
atp6820
a(I1
(lp6821
Vwe gasp
p6822
aVours gasp
p6823
atp6824
a(I1
(lp6825
Vwe fulfill
p6826
aVours fulfill
p6827
atp6828
a(I1
(lp6829
Vwe formulate
p6830
aVours formulate
p6831
atp6832
a(I1
(lp6833
Vwe float
p6834
aVours float
p6835
atp6836
a(I1
(lp6837
Vwe fire
p6838
aVours fire
p6839
atp6840
a(I1
(lp6841
Vwe feast
p6842
aVours feast
p6843
atp6844
a(I1
(lp6845
Vwe favor
p6846
aVours favor
p6847
atp6848
a(I1
(lp6849
Vwe farm
p6850
aVours farm
p6851
atp6852
a(I1
(lp6853
Vwe extract
p6854
aVours extract
p6855
atp6856
a(I1
(lp6857
Vwe exist
p6858
aVours exist
p6859
atp6860
a(I1
(lp6861
Vwe exert
p6862
aVours exert
p6863
atp6864
a(I1
(lp6865
Vwe envy
p6866
aVours envy
p6867
atp6868
a(I1
(lp6869
Vwe enrich
p6870
aVours enrich
p6871
atp6872
a(I1
(lp6873
Vwe enlarge
p6874
aVours enlarge
p6875
atp6876
a(I1
(lp6877
Vwe encourage
p6878
aVours encourage
p6879
atp6880
a(I1
(lp6881
Vwe eliminate
p6882
aVours eliminate
p6883
atp6884
a(I1
(lp6885
Vwe elaborate
p6886
aVours elaborate
p6887
atp6888
a(I1
(lp6889
Vwe educate
p6890
aVours educate
p6891
atp6892
a(I1
(lp6893
Vwe dye
p6894
aVours dye
p6895
atp6896
a(I1
(lp6897
Vwe drift
p6898
aVours drift
p6899
atp6900
a(I1
(lp6901
Vwe double
p6902
aVours double
p6903
atp6904
a(I1
(lp6905
Vwe distrust
p6906
aVours distrust
p6907
atp6908
a(I1
(lp6909
Vwe dislike
p6910
aVours dislike
p6911
atp6912
a(I1
(lp6913
Vwe discard
p6914
aVours discard
p6915
atp6916
a(I1
(lp6917
Vwe dip
p6918
aVours dip
p6919
atp6920
a(I1
(lp6921
Vwe dilute
p6922
aVours dilute
p6923
atp6924
a(I1
(lp6925
Vwe differ
p6926
aVours differ
p6927
atp6928
a(I1
(lp6929
Vwe dictate
p6930
aVours dictate
p6931
atp6932
a(I1
(lp6933
Vwe diagnose
p6934
aVours diagnose
p6935
atp6936
a(I1
(lp6937
Vwe devote
p6938
aVours devote
p6939
atp6940
a(I1
(lp6941
Vwe designate
p6942
aVours designate
p6943
atp6944
a(I1
(lp6945
Vwe design
p6946
aVours design
p6947
atp6948
a(I1
(lp6949
Vwe descend
p6950
aVours descend
p6951
atp6952
a(I1
(lp6953
Vwe demonstrate
p6954
aVours demonstrate
p6955
atp6956
a(I1
(lp6957
Vwe deliver
p6958
aVours deliver
p6959
atp6960
a(I1
(lp6961
Vwe delight
p6962
aVours delight
p6963
atp6964
a(I1
(lp6965
Vwe delegate
p6966
aVours delegate
p6967
atp6968
a(I1
(lp6969
Vwe defy
p6970
aVours defy
p6971
atp6972
a(I1
(lp6973
Vwe dam
p6974
aVours dam
p6975
atp6976
a(I1
(lp6977
Vwe cover
p6978
aVours cover
p6979
atp6980
a(I1
(lp6981
Vwe copy
p6982
aVours copy
p6983
atp6984
a(I1
(lp6985
Vwe cooperate
p6986
aVours cooperate
p6987
atp6988
a(I1
(lp6989
Vwe contend
p6990
aVours contend
p6991
atp6992
a(I1
(lp6993
Vwe contact
p6994
aVours contact
p6995
atp6996
a(I1
(lp6997
Vwe conquer
p6998
aVours conquer
p6999
atp7000
a(I1
(lp7001
Vwe confront
p7002
aVours confront
p7003
atp7004
a(I1
(lp7005
Vwe conform
p7006
aVours conform
p7007
atp7008
a(I1
(lp7009
Vwe confess
p7010
aVours confess
p7011
atp7012
a(I1
(lp7013
Vwe concentrate
p7014
aVours concentrate
p7015
atp7016
a(I1
(lp7017
Vwe compute
p7018
aVours compute
p7019
atp7020
a(I1
(lp7021
Vwe comprehend
p7022
aVours comprehend
p7023
atp7024
a(I1
(lp7025
Vwe complete
p7026
aVours complete
p7027
atp7028
a(I1
(lp7029
Vwe commit
p7030
aVours commit
p7031
atp7032
a(I1
(lp7033
Vwe comb
p7034
aVours comb
p7035
atp7036
a(I1
(lp7037
Vwe clung
p7038
aVours clung
p7039
atp7040
a(I1
(lp7041
Vwe clean
p7042
aVours clean
p7043
atp7044
a(I1
(lp7045
Vwe chew
p7046
aVours chew
p7047
atp7048
a(I1
(lp7049
Vwe check
p7050
aVours check
p7051
atp7052
a(I1
(lp7053
Vwe caution
p7054
aVours caution
p7055
atp7056
a(I1
(lp7057
Vwe carve
p7058
aVours carve
p7059
atp7060
a(I1
(lp7061
Vwe capture
p7062
aVours capture
p7063
atp7064
a(I1
(lp7065
Vwe bother
p7066
aVours bother
p7067
atp7068
a(I1
(lp7069
Vwe boil
p7070
aVours boil
p7071
atp7072
a(I1
(lp7073
Vwe boast
p7074
aVours boast
p7075
atp7076
a(I1
(lp7077
Vwe bet
p7078
aVours bet
p7079
atp7080
a(I1
(lp7081
Vwe benefit
p7082
aVours benefit
p7083
atp7084
a(I1
(lp7085
Vwe bear
p7086
aVours bear
p7087
atp7088
a(I1
(lp7089
Vwe base
p7090
aVours base
p7091
atp7092
a(I1
(lp7093
Vwe bake
p7094
aVours bake
p7095
atp7096
a(I1
(lp7097
Vwe attack
p7098
aVours attack
p7099
atp7100
a(I1
(lp7101
Vwe assist
p7102
aVours assist
p7103
atp7104
a(I1
(lp7105
Vwe assemble
p7106
aVours assemble
p7107
atp7108
a(I1
(lp7109
Vwe appreciate
p7110
aVours appreciate
p7111
atp7112
a(I1
(lp7113
Vwe aint
p7114
aVours aint
p7115
atp7116
a(I1
(lp7117
Vwe aim
p7118
aVours aim
p7119
atp7120
a(I1
(lp7121
Vwe address
p7122
aVours address
p7123
atp7124
a(I1
(lp7125
Vwe adapt
p7126
aVours adapt
p7127
atp7128
a(I1
(lp7129
Vus win
p7130
aVour win
p7131
atp7132
a(I1
(lp7133
Vus tend
p7134
aVour tend
p7135
atp7136
a(I1
(lp7137
Vus suffer
p7138
aVour suffer
p7139
atp7140
a(I1
(lp7141
Vus seem
p7142
aVour seem
p7143
atp7144
a(I1
(lp7145
Vus prefer
p7146
aVour prefer
p7147
atp7148
a(I1
(lp7149
Vus predict
p7150
aVour predict
p7151
atp7152
a(I1
(lp7153
Vus perceive
p7154
aVour perceive
p7155
atp7156
a(I1
(lp7157
Vus harm
p7158
aVour harm
p7159
atp7160
a(I1
(lp7161
Vus conclude
p7162
aVour conclude
p7163
atp7164
a(I1
(lp7165
Vus communicate
p7166
aVour communicate
p7167
atp7168
a(I1
(lp7169
Vus carry
p7170
aVour carry
p7171
atp7172
a(I1
(lp7173
Vus adjust
p7174
aVour adjust
p7175
atp7176
a(I1
(lp7177
Vus acknowledge
p7178
aVour acknowledge
p7179
atp7180
a(I1
(lp7181
Vthou wish
p7182
aVthy wish
p7183
atp7184
a(I1
(lp7185
Vthou want
p7186
aVthy want
p7187
atp7188
a(I1
(lp7189
Vthou imagine
p7190
aVthy imagine
p7191
atp7192
a(I1
(lp7193
Vthou help
p7194
aVthy help
p7195
atp7196
a(I1
(lp7197
Vthou expect
p7198
aVthy expect
p7199
atp7200
a(I1
(lp7201
Vthou do
p7202
aVthy do
p7203
atp7204
a(I1
(lp7205
Vthou depart
p7206
aVthy depart
p7207
atp7208
a(I1
(lp7209
Vthou carry
p7210
aVthy carry
p7211
atp7212
a(I1
(lp7213
Vthou are
p7214
aVthy are
p7215
atp7216
a(I1
(lp7217
Vthey zero
p7218
aVtheir zero
p7219
atp7220
a(I1
(lp7221
Vthey yawn
p7222
aVtheir yawn
p7223
atp7224
a(I1
(lp7225
Vthey wound
p7226
aVtheir wound
p7227
atp7228
a(I1
(lp7229
Vthey worry
p7230
aVtheir worry
p7231
atp7232
a(I1
(lp7233
Vthey withhold
p7234
aVtheir withhold
p7235
atp7236
a(I1
(lp7237
Vthey withdraw
p7238
aVtheir withdraw
p7239
atp7240
a(I1
(lp7241
Vthey whip
p7242
aVtheir whip
p7243
atp7244
a(I1
(lp7245
Vthey weave
p7246
aVtheir weave
p7247
atp7248
a(I1
(lp7249
Vthey weaken
p7250
aVtheir weaken
p7251
atp7252
a(I1
(lp7253
Vthey wasn
p7254
aVtheir wasn
p7255
atp7256
a(I1
(lp7257
Vthey ware
p7258
aVtheir ware
p7259
atp7260
a(I1
(lp7261
Vthey wander
p7262
aVtheir wander
p7263
atp7264
a(I1
(lp7265
Vthey wade
p7266
aVtheir wade
p7267
atp7268
a(I1
(lp7269
Vthey venture
p7270
aVtheir venture
p7271
atp7272
a(I1
(lp7273
Vthey unload
p7274
aVtheir unload
p7275
atp7276
a(I1
(lp7277
Vthey unite
p7278
aVtheir unite
p7279
atp7280
a(I1
(lp7281
Vthey undermine
p7282
aVtheir undermine
p7283
atp7284
a(I1
(lp7285
Vthey uncover
p7286
aVtheir uncover
p7287
atp7288
a(I1
(lp7289
Vthey twist
p7290
aVtheir twist
p7291
atp7292
a(I1
(lp7293
Vthey tumble
p7294
aVtheir tumble
p7295
atp7296
a(I1
(lp7297
Vthey trim
p7298
aVtheir trim
p7299
atp7300
a(I1
(lp7301
Vthey trigger
p7302
aVtheir trigger
p7303
atp7304
a(I1
(lp7305
Vthey tremble
p7306
aVtheir tremble
p7307
atp7308
a(I1
(lp7309
Vthey translate
p7310
aVtheir translate
p7311
atp7312
a(I1
(lp7313
Vthey track
p7314
aVtheir track
p7315
atp7316
a(I1
(lp7317
Vthey tolerate
p7318
aVtheir tolerate
p7319
atp7320
a(I1
(lp7321
Vthey toil
p7322
aVtheir toil
p7323
atp7324
a(I1
(lp7325
Vthey tease
p7326
aVtheir tease
p7327
atp7328
a(I1
(lp7329
Vthey swear
p7330
aVtheir swear
p7331
atp7332
a(I1
(lp7333
Vthey swarm
p7334
aVtheir swarm
p7335
atp7336
a(I1
(lp7337
Vthey survey
p7338
aVtheir survey
p7339
atp7340
a(I1
(lp7341
Vthey surge
p7342
aVtheir surge
p7343
atp7344
a(I1
(lp7345
Vthey summarize
p7346
aVtheir summarize
p7347
atp7348
a(I1
(lp7349
Vthey suit
p7350
aVtheir suit
p7351
atp7352
a(I1
(lp7353
Vthey subtract
p7354
aVtheir subtract
p7355
atp7356
a(I1
(lp7357
Vthey substitute
p7358
aVtheir substitute
p7359
atp7360
a(I1
(lp7361
Vthey stumble
p7362
aVtheir stumble
p7363
atp7364
a(I1
(lp7365
Vthey strengthen
p7366
aVtheir strengthen
p7367
atp7368
a(I1
(lp7369
Vthey stare
p7370
aVtheir stare
p7371
atp7372
a(I1
(lp7373
Vthey stalk
p7374
aVtheir stalk
p7375
atp7376
a(I1
(lp7377
Vthey stake
p7378
aVtheir stake
p7379
atp7380
a(I1
(lp7381
Vthey stack
p7382
aVtheir stack
p7383
atp7384
a(I1
(lp7385
Vthey spy
p7386
aVtheir spy
p7387
atp7388
a(I1
(lp7389
Vthey sponsor
p7390
aVtheir sponsor
p7391
atp7392
a(I1
(lp7393
Vthey spit
p7394
aVtheir spit
p7395
atp7396
a(I1
(lp7397
Vthey spill
p7398
aVtheir spill
p7399
atp7400
a(I1
(lp7401
Vthey speculate
p7402
aVtheir speculate
p7403
atp7404
a(I1
(lp7405
Vthey soften
p7406
aVtheir soften
p7407
atp7408
a(I1
(lp7409
Vthey sniff
p7410
aVtheir sniff
p7411
atp7412
a(I1
(lp7413
Vthey sneak
p7414
aVtheir sneak
p7415
atp7416
a(I1
(lp7417
Vthey smash
p7418
aVtheir smash
p7419
atp7420
a(I1
(lp7421
Vthey sling
p7422
aVtheir sling
p7423
atp7424
a(I1
(lp7425
Vthey slice
p7426
aVtheir slice
p7427
atp7428
a(I1
(lp7429
Vthey shrink
p7430
aVtheir shrink
p7431
atp7432
a(I1
(lp7433
Vthey shave
p7434
aVtheir shave
p7435
atp7436
a(I1
(lp7437
Vthey seize
p7438
aVtheir seize
p7439
atp7440
a(I1
(lp7441
Vthey secrete
p7442
aVtheir secrete
p7443
atp7444
a(I1
(lp7445
Vthey screech
p7446
aVtheir screech
p7447
atp7448
a(I1
(lp7449
Vthey scrape
p7450
aVtheir scrape
p7451
atp7452
a(I1
(lp7453
Vthey scoop
p7454
aVtheir scoop
p7455
atp7456
a(I1
(lp7457
Vthey sail
p7458
aVtheir sail
p7459
atp7460
a(I1
(lp7461
Vthey rob
p7462
aVtheir rob
p7463
atp7464
a(I1
(lp7465
Vthey remark
p7466
aVtheir remark
p7467
atp7468
a(I1
(lp7469
Vthey relay
p7470
aVtheir relay
p7471
atp7472
a(I1
(lp7473
Vthey reinforce
p7474
aVtheir reinforce
p7475
atp7476
a(I1
(lp7477
Vthey regret
p7478
aVtheir regret
p7479
atp7480
a(I1
(lp7481
Vthey regain
p7482
aVtheir regain
p7483
atp7484
a(I1
(lp7485
Vthey reap
p7486
aVtheir reap
p7487
atp7488
a(I1
(lp7489
Vthey re
p7490
aVtheir re
p7491
atp7492
a(I1
(lp7493
Vthey qualify
p7494
aVtheir qualify
p7495
atp7496
a(I1
(lp7497
Vthey pronounce
p7498
aVtheir pronounce
p7499
atp7500
a(I1
(lp7501
Vthey prompt
p7502
aVtheir prompt
p7503
atp7504
a(I1
(lp7505
Vthey proceed
p7506
aVtheir proceed
p7507
atp7508
a(I1
(lp7509
Vthey prescribe
p7510
aVtheir prescribe
p7511
atp7512
a(I1
(lp7513
Vthey pound
p7514
aVtheir pound
p7515
atp7516
a(I1
(lp7517
Vthey pollute
p7518
aVtheir pollute
p7519
atp7520
a(I1
(lp7521
Vthey plug
p7522
aVtheir plug
p7523
atp7524
a(I1
(lp7525
Vthey pedal
p7526
aVtheir pedal
p7527
atp7528
a(I1
(lp7529
Vthey pair
p7530
aVtheir pair
p7531
atp7532
a(I1
(lp7533
Vthey overlap
p7534
aVtheir overlap
p7535
atp7536
a(I1
(lp7537
Vthey motivate
p7538
aVtheir motivate
p7539
atp7540
a(I1
(lp7541
Vthey merge
p7542
aVtheir merge
p7543
atp7544
a(I1
(lp7545
Vthey mend
p7546
aVtheir mend
p7547
atp7548
a(I1
(lp7549
Vthey lure
p7550
aVtheir lure
p7551
atp7552
a(I1
(lp7553
Vthey lock
p7554
aVtheir lock
p7555
atp7556
a(I1
(lp7557
Vthey leap
p7558
aVtheir leap
p7559
atp7560
a(I1
(lp7561
Vthey kick
p7562
aVtheir kick
p7563
atp7564
a(I1
(lp7565
Vthey joke
p7566
aVtheir joke
p7567
atp7568
a(I1
(lp7569
Vthey jest
p7570
aVtheir jest
p7571
atp7572
a(I1
(lp7573
Vthey isolate
p7574
aVtheir isolate
p7575
atp7576
a(I1
(lp7577
Vthey introduce
p7578
aVtheir introduce
p7579
atp7580
a(I1
(lp7581
Vthey intervene
p7582
aVtheir intervene
p7583
atp7584
a(I1
(lp7585
Vthey interrupt
p7586
aVtheir interrupt
p7587
atp7588
a(I1
(lp7589
Vthey insure
p7590
aVtheir insure
p7591
atp7592
a(I1
(lp7593
Vthey inspect
p7594
aVtheir inspect
p7595
atp7596
a(I1
(lp7597
Vthey insert
p7598
aVtheir insert
p7599
atp7600
a(I1
(lp7601
Vthey injure
p7602
aVtheir injure
p7603
atp7604
a(I1
(lp7605
Vthey initiate
p7606
aVtheir initiate
p7607
atp7608
a(I1
(lp7609
Vthey inhibit
p7610
aVtheir inhibit
p7611
atp7612
a(I1
(lp7613
Vthey impose
p7614
aVtheir impose
p7615
atp7616
a(I1
(lp7617
Vthey hurry
p7618
aVtheir hurry
p7619
atp7620
a(I1
(lp7621
Vthey hop
p7622
aVtheir hop
p7623
atp7624
a(I1
(lp7625
Vthey hoe
p7626
aVtheir hoe
p7627
atp7628
a(I1
(lp7629
Vthey hint
p7630
aVtheir hint
p7631
atp7632
a(I1
(lp7633
Vthey heave
p7634
aVtheir heave
p7635
atp7636
a(I1
(lp7637
Vthey haul
p7638
aVtheir haul
p7639
atp7640
a(I1
(lp7641
Vthey harden
p7642
aVtheir harden
p7643
atp7644
a(I1
(lp7645
Vthey hammer
p7646
aVtheir hammer
p7647
atp7648
a(I1
(lp7649
Vthey guess
p7650
aVtheir guess
p7651
atp7652
a(I1
(lp7653
Vthey grant
p7654
aVtheir grant
p7655
atp7656
a(I1
(lp7657
Vthey gleam
p7658
aVtheir gleam
p7659
atp7660
a(I1
(lp7661
Vthey generalize
p7662
aVtheir generalize
p7663
atp7664
a(I1
(lp7665
Vthey gallop
p7666
aVtheir gallop
p7667
atp7668
a(I1
(lp7669
Vthey frown
p7670
aVtheir frown
p7671
atp7672
a(I1
(lp7673
Vthey freeze
p7674
aVtheir freeze
p7675
atp7676
a(I1
(lp7677
Vthey forgive
p7678
aVtheir forgive
p7679
atp7680
a(I1
(lp7681
Vthey fool
p7682
aVtheir fool
p7683
atp7684
a(I1
(lp7685
Vthey flung
p7686
aVtheir flung
p7687
atp7688
a(I1
(lp7689
Vthey flip
p7690
aVtheir flip
p7691
atp7692
a(I1
(lp7693
Vthey expose
p7694
aVtheir expose
p7695
atp7696
a(I1
(lp7697
Vthey exploit
p7698
aVtheir exploit
p7699
atp7700
a(I1
(lp7701
Vthey exhibit
p7702
aVtheir exhibit
p7703
atp7704
a(I1
(lp7705
Vthey exclude
p7706
aVtheir exclude
p7707
atp7708
a(I1
(lp7709
Vthey excite
p7710
aVtheir excite
p7711
atp7712
a(I1
(lp7713
Vthey exceed
p7714
aVtheir exceed
p7715
atp7716
a(I1
(lp7717
Vthey evolve
p7718
aVtheir evolve
p7719
atp7720
a(I1
(lp7721
Vthey erect
p7722
aVtheir erect
p7723
atp7724
a(I1
(lp7725
Vthey entertain
p7726
aVtheir entertain
p7727
atp7728
a(I1
(lp7729
Vthey enforce
p7730
aVtheir enforce
p7731
atp7732
a(I1
(lp7733
Vthey endeavor
p7734
aVtheir endeavor
p7735
atp7736
a(I1
(lp7737
Vthey dye
p7738
aVtheir dye
p7739
atp7740
a(I1
(lp7741
Vthey dwell
p7742
aVtheir dwell
p7743
atp7744
a(I1
(lp7745
Vthey doubt
p7746
aVtheir doubt
p7747
atp7748
a(I1
(lp7749
Vthey distrust
p7750
aVtheir distrust
p7751
atp7752
a(I1
(lp7753
Vthey dispose
p7754
aVtheir dispose
p7755
atp7756
a(I1
(lp7757
Vthey discriminate
p7758
aVtheir discriminate
p7759
atp7760
a(I1
(lp7761
Vthey discourage
p7762
aVtheir discourage
p7763
atp7764
a(I1
(lp7765
Vthey discharge
p7766
aVtheir discharge
p7767
atp7768
a(I1
(lp7769
Vthey dip
p7770
aVtheir dip
p7771
atp7772
a(I1
(lp7773
Vthey dictate
p7774
aVtheir dictate
p7775
atp7776
a(I1
(lp7777
Vthey devise
p7778
aVtheir devise
p7779
atp7780
a(I1
(lp7781
Vthey deny
p7782
aVtheir deny
p7783
atp7784
a(I1
(lp7785
Vthey define
p7786
aVtheir define
p7787
atp7788
a(I1
(lp7789
Vthey decline
p7790
aVtheir decline
p7791
atp7792
a(I1
(lp7793
Vthey dash
p7794
aVtheir dash
p7795
atp7796
a(I1
(lp7797
Vthey dare
p7798
aVtheir dare
p7799
atp7800
a(I1
(lp7801
Vthey curl
p7802
aVtheir curl
p7803
atp7804
a(I1
(lp7805
Vthey creep
p7806
aVtheir creep
p7807
atp7808
a(I1
(lp7809
Vthey cough
p7810
aVtheir cough
p7811
atp7812
a(I1
(lp7813
Vthey convert
p7814
aVtheir convert
p7815
atp7816
a(I1
(lp7817
Vthey construct
p7818
aVtheir construct
p7819
atp7820
a(I1
(lp7821
Vthey conceal
p7822
aVtheir conceal
p7823
atp7824
a(I1
(lp7825
Vthey comb
p7826
aVtheir comb
p7827
atp7828
a(I1
(lp7829
Vthey cluster
p7830
aVtheir cluster
p7831
atp7832
a(I1
(lp7833
Vthey clarify
p7834
aVtheir clarify
p7835
atp7836
a(I1
(lp7837
Vthey cheer
p7838
aVtheir cheer
p7839
atp7840
a(I1
(lp7841
Vthey chart
p7842
aVtheir chart
p7843
atp7844
a(I1
(lp7845
Vthey cease
p7846
aVtheir cease
p7847
atp7848
a(I1
(lp7849
Vthey cancel
p7850
aVtheir cancel
p7851
atp7852
a(I1
(lp7853
Vthey calculate
p7854
aVtheir calculate
p7855
atp7856
a(I1
(lp7857
Vthey burrow
p7858
aVtheir burrow
p7859
atp7860
a(I1
(lp7861
Vthey brush
p7862
aVtheir brush
p7863
atp7864
a(I1
(lp7865
Vthey broadcast
p7866
aVtheir broadcast
p7867
atp7868
a(I1
(lp7869
Vthey boo
p7870
aVtheir boo
p7871
atp7872
a(I1
(lp7873
Vthey bloom
p7874
aVtheir bloom
p7875
atp7876
a(I1
(lp7877
Vthey bind
p7878
aVtheir bind
p7879
atp7880
a(I1
(lp7881
Vthey beg
p7882
aVtheir beg
p7883
atp7884
a(I1
(lp7885
Vthey bathe
p7886
aVtheir bathe
p7887
atp7888
a(I1
(lp7889
Vthey await
p7890
aVtheir await
p7891
atp7892
a(I1
(lp7893
Vthey assure
p7894
aVtheir assure
p7895
atp7896
a(I1
(lp7897
Vthey arrange
p7898
aVtheir arrange
p7899
atp7900
a(I1
(lp7901
Vthey appreciate
p7902
aVtheir appreciate
p7903
atp7904
a(I1
(lp7905
Vthey anchor
p7906
aVtheir anchor
p7907
atp7908
a(I1
(lp7909
Vthey amuse
p7910
aVtheir amuse
p7911
atp7912
a(I1
(lp7913
Vthey alter
p7914
aVtheir alter
p7915
atp7916
a(I1
(lp7917
Vthey advocate
p7918
aVtheir advocate
p7919
atp7920
a(I1
(lp7921
Vthey adjust
p7922
aVtheir adjust
p7923
atp7924
a(I1
(lp7925
Vthey adapt
p7926
aVtheir adapt
p7927
atp7928
a(I1
(lp7929
Vthey acknowledge
p7930
aVtheir acknowledge
p7931
atp7932
a(I1
(lp7933
Vthey accord
p7934
aVtheir accord
p7935
atp7936
a(I1
(lp7937
Vthey accommodate
p7938
aVtheir accommodate
p7939
atp7940
a(I1
(lp7941
Vthey abide
p7942
aVtheir abide
p7943
atp7944
a(I1
(lp7945
Vthemselves win
p7946
aVtheir win
p7947
atp7948
a(I1
(lp7949
Vthemselves vary
p7950
aVtheir vary
p7951
atp7952
a(I1
(lp7953
Vthemselves suggest
p7954
aVtheir suggest
p7955
atp7956
a(I1
(lp7957
Vthemselves prove
p7958
aVtheir prove
p7959
atp7960
a(I1
(lp7961
Vthemselves proceed
p7962
aVtheir proceed
p7963
atp7964
a(I1
(lp7965
Vthemselves identify
p7966
aVtheir identify
p7967
atp7968
a(I1
(lp7969
Vthemselves fit
p7970
aVtheir fit
p7971
atp7972
a(I1
(lp7973
Vthemselves exert
p7974
aVtheir exert
p7975
atp7976
a(I1
(lp7977
Vthemselves earn
p7978
aVtheir earn
p7979
atp7980
a(I1
(lp7981
Vthemselves drink
p7982
aVtheir drink
p7983
atp7984
a(I1
(lp7985
Vthemselves don
p7986
aVtheir don
p7987
atp7988
a(I1
(lp7989
Vthemselves contain
p7990
aVtheir contain
p7991
atp7992
a(I1
(lp7993
Vthemselves add
p7994
aVtheir add
p7995
atp7996
a(I1
(lp7997
Vthem suffer
p7998
aVtheir suffer
p7999
atp8000
a(I1
(lp8001
Vthem select
p8002
aVtheir select
p8003
atp8004
a(I1
(lp8005
Vthem resemble
p8006
aVtheir resemble
p8007
atp8008
a(I1
(lp8009
Vthem require
p8010
aVtheir require
p8011
atp8012
a(I1
(lp8013
Vthem refer
p8014
aVtheir refer
p8015
atp8016
a(I1
(lp8017
Vthem prefer
p8018
aVtheir prefer
p8019
atp8020
a(I1
(lp8021
Vthem pour
p8022
aVtheir pour
p8023
atp8024
a(I1
(lp8025
Vthem possess
p8026
aVtheir possess
p8027
atp8028
a(I1
(lp8029
Vthem plug
p8030
aVtheir plug
p8031
atp8032
a(I1
(lp8033
Vthem parallel
p8034
aVtheir parallel
p8035
atp8036
a(I1
(lp8037
Vthem owe
p8038
aVtheir owe
p8039
atp8040
a(I1
(lp8041
Vthem occur
p8042
aVtheir occur
p8043
atp8044
a(I1
(lp8045
Vthem joseph
p8046
aVtheir joseph
p8047
atp8048
a(I1
(lp8049
Vthem graduate
p8050
aVtheir graduate
p8051
atp8052
a(I1
(lp8053
Vthem express
p8054
aVtheir express
p8055
atp8056
a(I1
(lp8057
Vthem exist
p8058
aVtheir exist
p8059
atp8060
a(I1
(lp8061
Vthem drift
p8062
aVtheir drift
p8063
atp8064
a(I1
(lp8065
Vthem drag
p8066
aVtheir drag
p8067
atp8068
a(I1
(lp8069
Vthem dig
p8070
aVtheir dig
p8071
atp8072
a(I1
(lp8073
Vthem describe
p8074
aVtheir describe
p8075
atp8076
a(I1
(lp8077
Vthem collide
p8078
aVtheir collide
p8079
atp8080
a(I1
(lp8081
Vthem clara
p8082
aVtheir clara
p8083
atp8084
a(I1
(lp8085
Vthem cherokee
p8086
aVtheir cherokee
p8087
atp8088
a(I1
(lp8089
Vthem bring
p8090
aVtheir bring
p8091
atp8092
a(I1
(lp8093
Vthem arrive
p8094
aVtheir arrive
p8095
atp8096
a(I1
(lp8097
Vthem adjust
p8098
aVtheir adjust
p8099
atp8100
a(I1
(lp8101
Vthee add
p8102
aVthy add
p8103
atp8104
a(I1
(lp8105
Vshe remain
p8106
aVher remain
p8107
atp8108
a(I1
(lp8109
Vshe insist
p8110
aVher insist
p8111
atp8112
a(I1
(lp8113
Vshe frown
p8114
aVher frown
p8115
atp8116
a(I1
(lp8117
Vme suffer
p8118
aVmy suffer
p8119
atp8120
a(I1
(lp8121
Vme kick
p8122
aVmy kick
p8123
atp8124
a(I1
(lp8125
Vit suppress
p8126
aVits suppress
p8127
atp8128
a(I1
(lp8129
Vit relate
p8130
aVits relate
p8131
atp8132
a(I1
(lp8133
Vit regard
p8134
aVits regard
p8135
atp8136
a(I1
(lp8137
Vit question
p8138
aVits question
p8139
atp8140
a(I1
(lp8141
Vit provide
p8142
aVits provide
p8143
atp8144
a(I1
(lp8145
Vit miss
p8146
aVits miss
p8147
atp8148
a(I1
(lp8149
Vit loom
p8150
aVits loom
p8151
atp8152
a(I1
(lp8153
Vit illustrate
p8154
aVits illustrate
p8155
atp8156
a(I1
(lp8157
Vit hath
p8158
aVits hath
p8159
atp8160
a(I1
(lp8161
Vit describe
p8162
aVits describe
p8163
atp8164
a(I1
(lp8165
Vit correspond
p8166
aVits correspond
p8167
atp8168
a(I1
(lp8169
Vhim result
p8170
aVhis result
p8171
atp8172
a(I1
(lp8173
Vhim propose
p8174
aVhis propose
p8175
atp8176
a(I1
(lp8177
Vhim preach
p8178
aVhis preach
p8179
atp8180
a(I1
(lp8181
Vhim goodbye
p8182
aVhis goodbye
p8183
atp8184
a(I1
(lp8185
Vhim deedee
p8186
aVhis deedee
p8187
atp8188
a(I1
(lp8189
Vhim correspond
p8190
aVhis correspond
p8191
atp8192
a(I1
(lp8193
Vhe swear
p8194
aVhis swear
p8195
atp8196
a(I1
(lp8197
Vhe suggest
p8198
aVhis suggest
p8199
atp8200
a(I1
(lp8201
Vhe suffer
p8202
aVhis suffer
p8203
atp8204
a(I1
(lp8205
Vhe manage
p8206
aVhis manage
p8207
atp8208
a(I1
(lp8209
Vhe finish
p8210
aVhis finish
p8211
atp8212
a(I1
(lp8213
Vhe discuss
p8214
aVhis discuss
p8215
atp8216
a(I1
(lp8217
Vhe chop
p8218
aVhis chop
p8219
atp8220
a.